(dp0
VAin't No Rest for the Wicked
p1
(dp2
VIf I ever feel better
p3
F1.0
sVUlysses
p4
F1.0
sVFloat On
p5
F1.0
sVLevel
p6
F1.0
sVThis Fire
p7
F1.0
sVCreepin Up The Backstairs
p8
F1.0
sVIn One Ear
p9
F0.5
sVTen Cent Pistol
p10
F1.0
sVSteady, As She Goes
p11
F1.0
sVShort Skirt / Long Jacket
p12
F1.0
sVTighten Up
p13
F1.0
sVPerhaps Vampires Is A Bit Strong But\u2026
p14
F1.0
sVIf You Were There, Beware
p15
F1.0
sVFeel Good Inc
p16
F0.5
sVDashboard
p17
F1.0
sVLampshades On Fire
p18
F0.5
sVLisztomania
p19
F1.0
sVClint Eastwood
p20
F0.5
sVRag And Bone
p21
F1.0
ssVTake Me Out
p22
(dp23
VTell Me A Lie
p24
F0.5
sVCreepin Up The Backstairs
p25
F0.5
sVIn One Ear
p26
F1.0
sVPerhaps Vampires Is A Bit Strong But\u2026
p27
F1.0
sVUnbelievers
p28
F1.0
sVThe Denial Twist
p29
F1.0
sVFever
p30
F1.0
sVRag And Bone
p31
F0.3333333333333333
sVDo I Wanna Know?
p32
F1.0
sVOxford Comma
p33
F0.5
sVM79
p34
F1.0
sVBlue Orchid
p35
F1.0
sVFlathead
p36
F1.0
sVHenrietta
p37
F1.0
sVGot Ma Nuts From A Hippie
p38
F1.0
sVThe Hardest Button To Button
p39
F1.0
sVTighten Up
p40
F0.5
sVWell That Was Easy
p41
F1.0
sVGold On The Ceiling
p42
F0.3333333333333333
sVChelsea Dagger
p43
F1.0
sVWhy'd You Only Call Me When You're High?
p44
F1.0
sVFluorescent Adolescent
p45
F0.5
sVUlysses
p46
F1.0
sVConquest
p47
F1.0
sVHowlin' For You
p48
F1.0
sVHeavy Soul
p49
F1.0
ssVNo One Knows
p50
(dp51
VCatch Hell Blues
p52
F1.0
sVGirl, You Have No Faith In Medicine
p53
F1.0
sVM79
p54
F1.0
sVGirl Is On My Mind
p55
F1.0
sVAcid Jazz Singer
p56
F1.0
sVIf You Were There, Beware
p57
F1.0
sVShort Skirt / Long Jacket
p58
F1.0
sVThe Fallen
p59
F1.0
sV1901
p60
F1.0
sVWhistle For The Choir
p61
F1.0
sVRun
p62
F1.0
sVRag And Bone
p63
F1.0
sVRed Light Indicates Doors Are Secured
p64
F1.0
sVNext Girl
p65
F1.0
sV505
p66
F1.0
sVGot Ma Nuts From A Hippie
p67
F1.0
sVSt. James Infirmary Blues
p68
F1.0
sVWell That Was Easy
p69
F0.5
sVWhy'd You Only Call Me When You're High?
p70
F1.0
sVFake Tales Of San Francisco
p71
F1.0
sVOxford Comma
p72
F1.0
sVIf I ever feel better
p73
F1.0
sV3's & 7's
p74
F1.0
ssg24
(dp75
g22
F0.5
sg34
F1.0
sg26
F1.0
sVPerhaps Vampires Is A Bit Strong But\u2026
p76
F0.5
sg25
F0.3333333333333333
sg39
F1.0
sg29
F1.0
sg31
F0.5
sVRed Light Indicates Doors Are Secured
p77
F1.0
sVI Bet You Look Good On The Dancefloor
p78
F1.0
sVOxford Comma
p79
F1.0
sVBrianstorm
p80
F1.0
sVFlathead
p81
F1.0
sg37
F0.5
sg38
F1.0
sg40
F0.5
sg41
F1.0
sg42
F0.5
sVChelsea Dagger
p82
F1.0
sVFake Tales Of San Francisco
p83
F1.0
sg45
F0.3333333333333333
sg46
F1.0
sg47
F1.0
sg49
F1.0
ssg64
(dp84
g52
F1.0
sg66
F1.0
sVFluorescent Adolescent
p85
F1.0
sVNo One Knows
p86
F1.0
sVHenrietta
p87
F1.0
sVCreepin Up The Backstairs
p88
F1.0
sVTell Me A Lie
p89
F1.0
sg53
F1.0
sg68
F1.0
sg78
F1.0
sg56
F1.0
sg76
F1.0
sVWell That Was Easy
p90
F1.0
sg58
F1.0
sg82
F1.0
sg81
F1.0
sg72
F1.0
sg83
F1.0
sg80
F1.0
sg67
F1.0
sg63
F1.0
ssg25
(dp91
g1
F1.0
sg22
F0.5
sg24
F0.3333333333333333
sg34
F1.0
sg26
F0.5
sg14
F0.3333333333333333
sg15
F1.0
sg12
F1.0
sg82
F1.0
sg29
F1.0
sg31
F0.3333333333333333
sg7
F1.0
sg77
F1.0
sg78
F1.0
sg79
F1.0
sg80
F1.0
sg16
F1.0
sg81
F1.0
sg37
F0.5
sg38
F1.0
sg10
F1.0
sg40
F0.3333333333333333
sg41
F1.0
sg42
F0.5
sg18
F1.0
sg39
F1.0
sg83
F1.0
sg20
F1.0
sg45
F0.3333333333333333
sg46
F0.5
sg47
F1.0
sg49
F1.0
ssg26
(dp92
g1
F0.5
sg22
F1.0
sg24
F1.0
sg25
F0.5
sg14
F1.0
sg15
F1.0
sg12
F1.0
sg31
F0.5
sg7
F1.0
sg19
F1.0
sg16
F0.5
sg37
F1.0
sg6
F1.0
sg10
F1.0
sg11
F1.0
sg40
F0.5
sg41
F1.0
sg17
F1.0
sg42
F1.0
sg18
F0.5
sg39
F1.0
sg20
F0.5
sg45
F1.0
sg46
F0.5
sg47
F1.0
sg3
F1.0
sg5
F1.0
sg49
F1.0
ssg55
(dp93
g61
F1.0
sg62
F1.0
sg50
F1.0
sg54
F1.0
sg73
F1.0
sg59
F1.0
sg65
F1.0
sg69
F1.0
sg74
F1.0
sg57
F1.0
sg70
F1.0
sg71
F1.0
sg60
F1.0
ssg56
(dp94
g52
F1.0
sg66
F1.0
sg86
F1.0
sg53
F1.0
sg64
F1.0
sg68
F1.0
sg90
F1.0
sg58
F1.0
sg72
F1.0
sg67
F1.0
sg63
F1.0
ssg14
(dp95
g1
F1.0
sVTake Me Out
p96
F1.0
sg89
F0.5
sg8
F0.3333333333333333
sg9
F1.0
sg15
F1.0
sg12
F1.0
sg29
F1.0
sg34
F1.0
sg21
F0.5
sg7
F1.0
sg77
F1.0
sg78
F1.0
sg79
F1.0
sg80
F1.0
sg16
F1.0
sg81
F1.0
sg87
F1.0
sg38
F1.0
sg10
F1.0
sg13
F0.5
sVGold On The Ceiling
p97
F1.0
sg18
F1.0
sg82
F1.0
sg83
F1.0
sg20
F1.0
sg85
F0.5
sg4
F1.0
ssg15
(dp98
g1
F1.0
sg50
F1.0
sg8
F1.0
sg9
F1.0
sg55
F1.0
sg14
F1.0
sg12
F1.0
sg59
F1.0
sg60
F1.0
sg61
F1.0
sg62
F1.0
sg21
F1.0
sg7
F1.0
sg65
F1.0
sg54
F1.0
sg16
F1.0
sg10
F1.0
sg13
F1.0
sg69
F1.0
sg18
F1.0
sg70
F1.0
sg71
F1.0
sg20
F1.0
sg4
F1.0
sg73
F1.0
sg74
F1.0
ssg12
(dp99
g1
F1.0
sg86
F1.0
sg52
F1.0
sg53
F1.0
sg8
F1.0
sg9
F1.0
sg56
F1.0
sg14
F1.0
sg15
F1.0
sg21
F0.5
sg7
F1.0
sg64
F1.0
sg66
F1.0
sg16
F1.0
sg67
F1.0
sg10
F1.0
sg68
F1.0
sg13
F1.0
sg90
F1.0
sg18
F1.0
sg20
F1.0
sg72
F1.0
sg4
F1.0
ssVApple Blossom
p100
(dp101
VCatch Hell Blues
p102
F1.0
sVRag And Bone
p103
F1.0
sVIcky Thump
p104
F1.0
sVTen Cent Pistol
p105
F1.0
sVTighten Up
p106
F1.0
sVLonely Boy
p107
F1.0
sVGold On The Ceiling
p108
F1.0
sVThe Denial Twist
p109
F1.0
sVThe Hardest Button To Button
p110
F1.0
ssg59
(dp111
g61
F1.0
sg62
F1.0
sg50
F1.0
sg54
F1.0
sg73
F1.0
sg55
F1.0
sg65
F1.0
sg69
F1.0
sg74
F1.0
sg57
F1.0
sg70
F1.0
sg71
F1.0
sg60
F1.0
ssg35
(dp112
VTake Me Out
p113
F1.0
sg30
F1.0
sVI'm Not The One
p114
F1.0
sVRag And Bone
p115
F1.0
sVUlysses
p116
F1.0
sVLisztomania
p117
F1.0
sg32
F0.5
sVHorchata
p118
F1.0
sV1901
p119
F1.0
sg48
F1.0
sVGold On The Ceiling
p120
F1.0
sg43
F1.0
sVHeavy Soul
p121
F1.0
sg28
F1.0
sg44
F0.5
sg33
F1.0
sVM79
p122
F1.0
sg36
F1.0
ssg109
(dp123
g102
F1.0
sg100
F1.0
sVFluorescent Adolescent
p124
F1.0
sg103
F0.5
sVTell Me A Lie
p125
F1.0
sg104
F1.0
sg96
F1.0
sg105
F1.0
sg106
F0.5
sg27
F1.0
sg107
F1.0
sg108
F0.5
sVCreepin Up The Backstairs
p126
F1.0
sg110
F1.0
sg79
F1.0
sg34
F1.0
sg38
F1.0
ssg54
(dp127
g96
F1.0
sg50
F1.0
sg125
F1.0
sg126
F1.0
sg29
F1.0
sg55
F1.0
sg27
F1.0
sg57
F1.0
sg59
F1.0
sg60
F0.5
sg61
F1.0
sg62
F1.0
sVRag And Bone
p128
F1.0
sVDo I Wanna Know?
p129
F1.0
sg65
F1.0
sg79
F1.0
sg117
F1.0
sVBlue Orchid
p130
F1.0
sg118
F1.0
sg38
F1.0
sVTighten Up
p131
F1.0
sg69
F1.0
sg97
F1.0
sg114
F1.0
sg70
F0.5
sg71
F1.0
sg124
F1.0
sg116
F1.0
sg73
F1.0
sg74
F1.0
sg121
F1.0
ssg60
(dp132
g61
F1.0
sg129
F1.0
sg62
F1.0
sg50
F1.0
sg54
F0.5
sg73
F1.0
sg59
F1.0
sg55
F1.0
sg65
F1.0
sg69
F1.0
sg114
F1.0
sg74
F1.0
sg121
F1.0
sg57
F1.0
sg70
F0.5
sg130
F1.0
sg71
F1.0
sg117
F1.0
sg118
F1.0
sg116
F1.0
ssg61
(dp133
g62
F1.0
sg50
F1.0
sg54
F1.0
sg73
F1.0
sg59
F1.0
sg55
F1.0
sg65
F1.0
sg69
F1.0
sg74
F1.0
sg57
F1.0
sg70
F1.0
sg71
F1.0
sg60
F1.0
ssg30
(dp134
g113
F1.0
sg115
F1.0
sg32
F1.0
sg48
F1.0
sg120
F1.0
sg43
F1.0
sg28
F1.0
sg44
F1.0
sg33
F1.0
sg35
F1.0
sg36
F1.0
ssg62
(dp135
g61
F1.0
sg50
F1.0
sg54
F1.0
sg73
F1.0
sg59
F1.0
sg55
F1.0
sg65
F1.0
sg69
F1.0
sg74
F1.0
sg57
F1.0
sg70
F1.0
sg71
F1.0
sg60
F1.0
ssg31
(dp136
g1
F1.0
sg22
F0.3333333333333333
sg86
F1.0
sg24
F0.5
sg64
F1.0
sg25
F0.3333333333333333
sg26
F0.5
sg100
F1.0
sg56
F1.0
sg14
F0.5
sg15
F1.0
sg12
F0.5
sg28
F1.0
sg35
F1.0
sg109
F0.5
sg30
F1.0
sg7
F1.0
sg43
F1.0
sg32
F1.0
sg53
F1.0
sg104
F1.0
sg33
F0.3333333333333333
sg34
F1.0
sg16
F1.0
sg36
F1.0
sg37
F1.0
sg67
F0.5
sg52
F0.5
sg10
F0.5
sg68
F1.0
sg40
F0.25
sg41
F0.5
sg42
F0.25
sg18
F1.0
sg39
F0.5
sg44
F1.0
sg20
F1.0
sg66
F1.0
sg45
F0.5
sg46
F0.5
sg47
F1.0
sg48
F1.0
sg49
F1.0
sg107
F1.0
ssg7
(dp137
g1
F1.0
sg4
F1.0
sg8
F1.0
sg9
F1.0
sg10
F1.0
sg12
F1.0
sg13
F1.0
sg14
F1.0
sg15
F1.0
sg16
F1.0
sg18
F1.0
sg20
F1.0
sg21
F1.0
ssg43
(dp138
g87
F1.0
sg113
F1.0
sg30
F1.0
sg85
F1.0
sg115
F1.0
sg89
F1.0
sg88
F1.0
sg32
F1.0
sg77
F1.0
sg78
F1.0
sg76
F1.0
sg48
F1.0
sg120
F1.0
sg28
F1.0
sg44
F1.0
sg33
F1.0
sg83
F1.0
sg80
F1.0
sg35
F1.0
sg36
F0.5
ssg32
(dp139
g113
F1.0
sg30
F1.0
sg114
F1.0
sg115
F1.0
sg116
F1.0
sg117
F1.0
sg118
F1.0
sg119
F1.0
sg48
F1.0
sg120
F1.0
sg43
F1.0
sg121
F1.0
sg28
F1.0
sg44
F0.5
sg33
F1.0
sg122
F1.0
sg35
F0.5
sg36
F1.0
ssg53
(dp140
g52
F1.0
sg66
F1.0
sg86
F1.0
sg64
F1.0
sg68
F1.0
sg56
F1.0
sg90
F1.0
sg58
F1.0
sg72
F1.0
sg67
F1.0
sg63
F1.0
ssg78
(dp141
g87
F1.0
sg85
F1.0
sg89
F1.0
sg88
F1.0
sg77
F1.0
sg76
F1.0
sg82
F1.0
sg83
F1.0
sg80
F1.0
sg81
F1.0
ssg104
(dp142
g102
F1.0
sg100
F1.0
sg103
F1.0
sg105
F1.0
sg106
F1.0
sg107
F1.0
sg108
F1.0
sg109
F1.0
sg110
F1.0
ssg65
(dp143
g61
F1.0
sg62
F1.0
sg50
F1.0
sg54
F1.0
sg73
F1.0
sg59
F1.0
sg55
F1.0
sg69
F1.0
sg74
F1.0
sg57
F1.0
sg70
F1.0
sg71
F1.0
sg60
F1.0
ssg33
(dp144
g52
F1.0
sg113
F0.5
sg86
F1.0
sg125
F1.0
sg53
F1.0
sg34
F1.0
sg29
F1.0
sg56
F1.0
sg27
F1.0
sg58
F1.0
sg28
F1.0
sg30
F1.0
sg115
F0.3333333333333333
sg32
F1.0
sg64
F1.0
sg66
F1.0
sg126
F1.0
sg35
F1.0
sg36
F1.0
sg67
F0.5
sg68
F1.0
sg131
F1.0
sg90
F1.0
sg120
F0.5
sg43
F1.0
sg44
F1.0
sg124
F1.0
sg48
F1.0
ssg19
(dp145
VAin't No Rest for the Wicked
p146
F1.0
sg118
F1.0
sVIn One Ear
p147
F1.0
sg114
F1.0
sg116
F1.0
sg6
F1.0
sg122
F1.0
sg3
F1.0
sg11
F1.0
sg119
F1.0
sg121
F1.0
sg129
F1.0
sg17
F1.0
sVLampshades On Fire
p148
F1.0
sVClint Eastwood
p149
F1.0
sVWhy'd You Only Call Me When You're High?
p150
F1.0
sg130
F1.0
sVFeel Good Inc
p151
F1.0
sg5
F1.0
ssg16
(dp152
g1
F0.5
sg3
F1.0
sg4
F1.0
sg5
F1.0
sg6
F1.0
sg7
F1.0
sg8
F1.0
sg9
F0.5
sg10
F1.0
sg11
F1.0
sg13
F1.0
sg14
F1.0
sg15
F1.0
sg12
F1.0
sg17
F1.0
sg18
F0.5
sg19
F1.0
sg20
F0.5
sg21
F1.0
ssg48
(dp153
g113
F1.0
sg30
F1.0
sg115
F1.0
sg32
F1.0
sg120
F1.0
sg43
F1.0
sg28
F1.0
sg44
F1.0
sg33
F1.0
sg35
F1.0
sg36
F1.0
ssg37
(dp154
g22
F1.0
sg45
F0.5
sg31
F1.0
sg24
F0.5
sg47
F1.0
sg26
F1.0
sg77
F1.0
sg78
F1.0
sg80
F1.0
sg40
F1.0
sg76
F1.0
sg41
F1.0
sg42
F1.0
sg82
F1.0
sg49
F1.0
sg39
F1.0
sg81
F1.0
sg83
F1.0
sg25
F0.5
sg46
F1.0
ssg118
(dp155
g114
F1.0
sg116
F1.0
sg117
F1.0
sg129
F1.0
sg121
F1.0
sg150
F1.0
sg122
F1.0
sg130
F1.0
sg119
F1.0
ssg67
(dp156
g52
F1.0
sg96
F1.0
sg66
F1.0
sg124
F1.0
sg86
F1.0
sg125
F1.0
sg53
F1.0
sg34
F1.0
sg64
F1.0
sg131
F1.0
sg68
F1.0
sg56
F1.0
sg27
F1.0
sg90
F1.0
sg58
F1.0
sg97
F1.0
sg29
F1.0
sg72
F0.5
sg126
F1.0
sg63
F0.5
ssg6
(dp157
g146
F1.0
sg147
F1.0
sg19
F1.0
sg3
F1.0
sg11
F1.0
sg17
F1.0
sg148
F1.0
sg149
F1.0
sg151
F1.0
sg5
F1.0
ssg52
(dp158
g100
F1.0
sg66
F1.0
sg86
F1.0
sg104
F1.0
sg53
F1.0
sg64
F1.0
sg105
F1.0
sg68
F1.0
sg56
F1.0
sg107
F1.0
sg90
F1.0
sg58
F1.0
sg108
F1.0
sg109
F1.0
sg106
F1.0
sg110
F1.0
sg72
F1.0
sg67
F1.0
sg63
F0.5
ssg10
(dp159
g1
F1.0
sg100
F1.0
sg4
F1.0
sg102
F1.0
sg104
F1.0
sg7
F1.0
sg8
F1.0
sg9
F1.0
sg107
F1.0
sg12
F1.0
sg13
F0.5
sg14
F1.0
sg15
F1.0
sg16
F1.0
sg108
F1.0
sg18
F1.0
sg110
F1.0
sg109
F1.0
sg20
F1.0
sg21
F0.5
ssg68
(dp160
g52
F1.0
sg66
F1.0
sg86
F1.0
sg53
F1.0
sg64
F1.0
sg56
F1.0
sg90
F1.0
sg58
F1.0
sg72
F1.0
sg67
F1.0
sg63
F1.0
ssg11
(dp161
g146
F1.0
sg147
F1.0
sg6
F1.0
sg19
F1.0
sg3
F1.0
sg17
F1.0
sg148
F1.0
sg149
F1.0
sg151
F1.0
sg5
F1.0
ssg40
(dp162
g1
F1.0
sg22
F0.5
sg24
F0.5
sg25
F0.3333333333333333
sg26
F0.5
sg100
F1.0
sg14
F0.5
sg15
F1.0
sg12
F1.0
sg109
F0.5
sg31
F0.25
sg7
F1.0
sg104
F1.0
sg79
F1.0
sg34
F1.0
sg16
F1.0
sg37
F1.0
sg38
F1.0
sg102
F1.0
sg10
F0.5
sg41
F1.0
sg42
F0.3333333333333333
sg18
F1.0
sg39
F0.5
sg20
F1.0
sg45
F0.5
sg46
F0.5
sg47
F1.0
sg49
F1.0
sg107
F1.0
ssg41
(dp163
g52
F1.0
sg22
F1.0
sg50
F0.5
sg24
F1.0
sg64
F1.0
sg25
F1.0
sg26
F1.0
sg55
F1.0
sg56
F1.0
sg57
F1.0
sg58
F1.0
sg59
F1.0
sg60
F1.0
sg61
F1.0
sg62
F1.0
sg31
F0.5
sg53
F1.0
sg65
F1.0
sg72
F1.0
sg54
F1.0
sg37
F1.0
sg67
F1.0
sg68
F1.0
sg40
F1.0
sg42
F1.0
sg39
F1.0
sg70
F1.0
sg71
F1.0
sg66
F1.0
sg45
F1.0
sg46
F1.0
sg47
F1.0
sg73
F1.0
sg74
F1.0
sg49
F1.0
ssg17
(dp164
g146
F1.0
sg3
F1.0
sg6
F1.0
sg19
F1.0
sg147
F1.0
sg11
F1.0
sg149
F1.0
sg148
F1.0
sg151
F1.0
sg5
F1.0
ssg42
(dp165
g102
F1.0
sg22
F0.3333333333333333
sg24
F0.5
sg25
F0.5
sg26
F1.0
sg100
F1.0
sg27
F1.0
sg107
F1.0
sg28
F1.0
sg109
F0.5
sg30
F1.0
sg31
F0.25
sg32
F1.0
sg33
F0.5
sg34
F1.0
sg35
F1.0
sg36
F1.0
sg37
F1.0
sg38
F1.0
sg39
F0.5
sg104
F1.0
sg105
F1.0
sg40
F0.3333333333333333
sg41
F1.0
sg43
F1.0
sg44
F1.0
sg45
F0.5
sg46
F1.0
sg47
F1.0
sg48
F1.0
sg49
F1.0
ssg18
(dp166
g1
F0.5
sg3
F1.0
sg4
F1.0
sg5
F1.0
sg6
F1.0
sg7
F1.0
sg8
F1.0
sg9
F0.5
sg10
F1.0
sg11
F1.0
sg12
F1.0
sg13
F1.0
sg14
F1.0
sg15
F1.0
sg16
F0.5
sg17
F1.0
sg19
F1.0
sg20
F0.5
sg21
F1.0
ssg39
(dp167
g37
F1.0
sg22
F1.0
sg45
F1.0
sg31
F0.5
sg24
F1.0
sg102
F1.0
sg47
F1.0
sg26
F1.0
sg100
F1.0
sg105
F1.0
sg104
F1.0
sg40
F0.5
sg41
F1.0
sg107
F1.0
sg42
F0.5
sg109
F1.0
sg49
F1.0
sg25
F1.0
sg46
F1.0
ssg70
(dp168
g113
F1.0
sg50
F1.0
sg54
F0.5
sg55
F1.0
sg57
F1.0
sg59
F1.0
sg60
F0.5
sg61
F1.0
sg30
F1.0
sg62
F1.0
sg115
F1.0
sg32
F0.5
sg65
F1.0
sg33
F1.0
sg117
F1.0
sg35
F0.5
sg36
F1.0
sg118
F1.0
sg69
F1.0
sg120
F1.0
sg43
F1.0
sg71
F1.0
sg28
F1.0
sg114
F1.0
sg116
F1.0
sg73
F1.0
sg48
F1.0
sg74
F1.0
sg121
F1.0
ssg71
(dp169
g50
F1.0
sg89
F1.0
sg54
F1.0
sg55
F1.0
sg76
F1.0
sg57
F1.0
sg88
F1.0
sg59
F1.0
sg60
F1.0
sg61
F1.0
sg62
F1.0
sg77
F1.0
sg78
F1.0
sg65
F1.0
sg80
F1.0
sg81
F1.0
sg87
F1.0
sg69
F1.0
sg82
F1.0
sg70
F1.0
sg85
F1.0
sg73
F1.0
sg74
F1.0
ssg20
(dp170
g1
F0.5
sg3
F1.0
sg4
F1.0
sg5
F1.0
sg6
F1.0
sg7
F1.0
sg8
F1.0
sg9
F0.5
sg10
F1.0
sg11
F1.0
sg13
F1.0
sg14
F1.0
sg15
F1.0
sg12
F1.0
sg17
F1.0
sg18
F0.5
sg19
F1.0
sg16
F0.5
sg21
F1.0
ssg28
(dp171
g113
F1.0
sg30
F1.0
sg115
F1.0
sg32
F1.0
sg48
F1.0
sg120
F1.0
sg43
F1.0
sg44
F1.0
sg33
F1.0
sg35
F1.0
sg36
F1.0
ssg66
(dp172
g52
F1.0
sg86
F1.0
sg53
F1.0
sg64
F1.0
sg68
F1.0
sg56
F1.0
sg90
F1.0
sg58
F1.0
sg72
F1.0
sg67
F1.0
sg63
F1.0
ssg45
(dp173
g22
F0.5
sg24
F0.3333333333333333
sg34
F1.0
sg26
F1.0
sg76
F0.5
sg25
F0.3333333333333333
sg39
F1.0
sg29
F1.0
sg31
F0.5
sg77
F1.0
sg78
F1.0
sg79
F1.0
sg80
F1.0
sg81
F1.0
sg37
F0.5
sg38
F1.0
sg40
F0.5
sg41
F1.0
sg42
F0.5
sg82
F1.0
sg83
F1.0
sg46
F1.0
sg47
F1.0
sg49
F1.0
ssg46
(dp174
g1
F1.0
sg22
F1.0
sg24
F1.0
sg25
F0.5
sg26
F0.5
sg14
F1.0
sg15
F1.0
sg12
F1.0
sg130
F1.0
sg122
F1.0
sg119
F1.0
sg31
F0.5
sg7
F1.0
sg129
F1.0
sg117
F1.0
sg16
F1.0
sg37
F1.0
sg118
F1.0
sg10
F1.0
sg40
F0.5
sg41
F1.0
sg42
F1.0
sg18
F1.0
sg39
F1.0
sg150
F1.0
sg20
F1.0
sg45
F1.0
sg47
F1.0
sg114
F1.0
sg49
F0.5
ssg47
(dp175
g37
F1.0
sg22
F1.0
sg45
F1.0
sg31
F1.0
sg24
F1.0
sg25
F1.0
sg26
F1.0
sg40
F1.0
sg41
F1.0
sg42
F1.0
sg49
F1.0
sg39
F1.0
sg46
F1.0
ssg3
(dp176
g146
F1.0
sg50
F1.0
sg19
F1.0
sg147
F1.0
sg55
F1.0
sg57
F1.0
sg59
F1.0
sg60
F1.0
sg61
F1.0
sg62
F1.0
sg65
F1.0
sg54
F1.0
sg151
F1.0
sg6
F1.0
sg11
F1.0
sg69
F1.0
sg17
F1.0
sg148
F1.0
sg70
F1.0
sg71
F1.0
sg149
F1.0
sg5
F1.0
sg74
F1.0
ssg114
(dp177
g118
F1.0
sg116
F1.0
sg117
F1.0
sg129
F1.0
sg121
F1.0
sg150
F1.0
sg122
F1.0
sg130
F1.0
sg119
F1.0
ssg80
(dp178
g87
F1.0
sg85
F1.0
sg89
F1.0
sg88
F1.0
sg77
F1.0
sg78
F1.0
sg76
F1.0
sg82
F1.0
sg83
F1.0
sg81
F1.0
ssg5
(dp179
g146
F1.0
sg3
F1.0
sg6
F1.0
sg19
F1.0
sg147
F1.0
sg11
F1.0
sg17
F1.0
sg148
F1.0
sg149
F1.0
sg151
F1.0
ssg74
(dp180
g61
F1.0
sg62
F1.0
sg50
F1.0
sg54
F1.0
sg73
F1.0
sg55
F1.0
sg65
F1.0
sg69
F1.0
sg59
F1.0
sg57
F1.0
sg70
F1.0
sg71
F1.0
sg60
F1.0
ssg49
(dp181
g37
F1.0
sg22
F1.0
sg117
F1.0
sg45
F1.0
sg31
F1.0
sg24
F1.0
sg47
F1.0
sg26
F1.0
sg118
F1.0
sg119
F1.0
sg40
F1.0
sg129
F1.0
sg41
F1.0
sg114
F1.0
sg42
F1.0
sg39
F1.0
sg150
F1.0
sg130
F1.0
sg25
F1.0
sg122
F1.0
sg46
F0.5
ssg36
(dp182
g87
F1.0
sg113
F1.0
sg30
F1.0
sg85
F1.0
sg115
F1.0
sg89
F1.0
sg88
F1.0
sg32
F1.0
sg77
F1.0
sg78
F1.0
sg76
F1.0
sg48
F1.0
sg120
F1.0
sg43
F0.5
sg28
F1.0
sg44
F1.0
sg33
F1.0
sg83
F1.0
sg80
F1.0
sg35
F1.0
ssg107
(dp183
g102
F1.0
sg100
F1.0
sg103
F1.0
sg104
F1.0
sg105
F1.0
sg106
F1.0
sg108
F1.0
sg109
F1.0
sg110
F1.0
ss.