(lp0
(lp1
S'null'
p2
aI21
aI11
aI3
aI6
aI12
aI6
aI7
aI11
aI12
aI10
aI11
aI12
aI21
aI11
aI6
aI21
aI11
aI11
aI21
aI11
aI21
aI22
aI21
aI6
aI6
aI11
aI21
aI6
aI21
aI21
aI6
aI52
aI21
aI7
aI35
aI21
aI37
aI12
aI39
aI40
aI7
aI42
aI21
aI44
aI6
aI11
aI6
aI48
aI21
aI12
aI6
aI52
aI21
aI7
aI55
aI6
aI57
aI58
aI11
aI7
aI52
aI21
aa(lp3
I21
ag2
aI21
aI7
aI4
aI21
aI6
aI21
aI28
aI21
aI6
aI21
aI21
aI21
aI28
aI15
aI21
aI28
aI28
aI19
aI28
aI21
aI21
aI23
aI21
aI4
aI28
aI27
aI28
aI29
aI30
aI31
aI23
aI21
aI21
aI21
aI21
aI21
aI21
aI21
aI40
aI21
aI21
aI43
aI21
aI45
aI46
aI4
aI21
aI49
aI21
aI51
aI21
aI21
aI54
aI21
aI4
aI21
aI21
aI21
aI60
aI21
aI21
aa(lp4
I11
aI21
ag2
aI55
aI21
aI5
aI21
aI21
aI8
aI9
aI21
aI11
aI12
aI21
aI14
aI21
aI21
aI17
aI18
aI21
aI20
aI21
aI11
aI46
aI24
aI24
aI26
aI27
aI28
aI46
aI21
aI41
aI17
aI33
aI21
aI55
aI21
aI21
aI38
aI55
aI21
aI41
aI55
aI21
aI21
aI21
aI46
aI47
aI21
aI21
aI50
aI21
aI21
aI53
aI41
aI55
aI24
aI17
aI21
aI59
aI41
aI17
aI21
aa(lp5
I0
aI7
aI55
ag2
aI7
aI0
aI7
aI7
aI55
aI0
aI7
aI0
aI0
aI0
aI55
aI7
aI0
aI55
aI55
aI0
aI55
aI7
aI0
aI57
aI7
aI7
aI55
aI7
aI55
aI57
aI7
aI7
aI57
aI7
aI7
aI35
aI7
aI0
aI7
aI39
aI7
aI7
aI42
aI7
aI44
aI7
aI55
aI55
aI48
aI7
aI7
aI7
aI7
aI7
aI7
aI55
aI7
aI57
aI58
aI55
aI7
aI57
aI7
aa(lp6
I6
aI1
aI21
aI7
ag2
aI21
aI6
aI6
aI28
aI21
aI10
aI6
aI21
aI21
aI28
aI15
aI16
aI28
aI28
aI1
aI28
aI21
aI6
aI1
aI24
aI25
aI28
aI21
aI28
aI1
aI1
aI31
aI28
aI33
aI34
aI6
aI21
aI21
aI21
aI6
aI40
aI41
aI6
aI43
aI6
aI45
aI1
aI47
aI6
aI1
aI21
aI51
aI6
aI21
aI54
aI6
aI56
aI6
aI6
aI28
aI60
aI6
aI21
aa(lp7
I12
aI21
aI2
aI12
aI21
ag2
aI21
aI21
aI2
aI9
aI21
aI2
aI12
aI21
aI2
aI21
aI21
aI2
aI2
aI21
aI2
aI21
aI12
aI21
aI24
aI24
aI2
aI27
aI2
aI21
aI21
aI21
aI2
aI33
aI21
aI21
aI21
aI21
aI38
aI21
aI21
aI41
aI21
aI21
aI21
aI21
aI2
aI2
aI21
aI21
aI50
aI21
aI21
aI53
aI21
aI2
aI24
aI21
aI21
aI2
aI21
aI21
aI21
aa(lp8
I0
aI1
aI21
aI7
aI4
aI21
ag2
aI7
aI11
aI21
aI10
aI11
aI21
aI21
aI11
aI15
aI21
aI28
aI11
aI21
aI11
aI21
aI22
aI21
aI24
aI25
aI11
aI21
aI28
aI21
aI21
aI31
aI52
aI21
aI21
aI7
aI21
aI21
aI21
aI7
aI40
aI21
aI7
aI43
aI44
aI45
aI21
aI47
aI48
aI21
aI21
aI51
aI52
aI21
aI54
aI7
aI56
aI7
aI58
aI21
aI60
aI52
aI21
aa(lp9
I0
aI21
aI21
aI3
aI6
aI21
aI6
ag2
aI11
aI21
aI6
aI11
aI12
aI21
aI11
aI6
aI21
aI52
aI11
aI21
aI11
aI21
aI22
aI21
aI6
aI6
aI11
aI21
aI6
aI21
aI21
aI31
aI52
aI21
aI34
aI35
aI21
aI37
aI21
aI39
aI40
aI41
aI42
aI21
aI44
aI6
aI21
aI6
aI48
aI21
aI21
aI6
aI52
aI21
aI54
aI55
aI6
aI57
aI58
aI11
aI60
aI52
aI21
aa(lp10
I11
aI28
aI2
aI55
aI28
aI2
aI11
aI11
ag2
aI2
aI11
aI11
aI2
aI2
aI14
aI46
aI28
aI17
aI18
aI46
aI20
aI41
aI11
aI46
aI2
aI47
aI26
aI41
aI28
aI46
aI46
aI41
aI17
aI2
aI41
aI55
aI41
aI11
aI2
aI55
aI41
aI41
aI55
aI41
aI11
aI46
aI46
aI47
aI11
aI46
aI2
aI41
aI11
aI2
aI41
aI55
aI47
aI17
aI11
aI59
aI17
aI17
aI41
aa(lp11
I12
aI21
aI2
aI12
aI21
aI5
aI21
aI21
aI2
ag2
aI21
aI2
aI12
aI21
aI2
aI21
aI21
aI2
aI2
aI21
aI2
aI21
aI12
aI21
aI24
aI24
aI2
aI27
aI2
aI21
aI21
aI21
aI21
aI33
aI21
aI21
aI21
aI21
aI38
aI21
aI21
aI41
aI21
aI21
aI21
aI21
aI2
aI2
aI21
aI21
aI50
aI21
aI21
aI53
aI21
aI2
aI24
aI21
aI21
aI2
aI21
aI21
aI21
aa(lp12
I0
aI6
aI21
aI6
aI4
aI21
aI6
aI6
aI11
aI21
ag2
aI11
aI12
aI21
aI11
aI15
aI16
aI28
aI11
aI21
aI11
aI21
aI22
aI21
aI24
aI25
aI11
aI21
aI28
aI21
aI21
aI6
aI6
aI33
aI21
aI6
aI21
aI37
aI21
aI6
aI40
aI21
aI6
aI21
aI44
aI45
aI21
aI47
aI48
aI21
aI21
aI51
aI6
aI21
aI6
aI6
aI56
aI6
aI58
aI11
aI6
aI6
aI21
aa(lp13
I0
aI21
aI2
aI0
aI6
aI2
aI6
aI7
aI8
aI2
aI10
ag2
aI12
aI21
aI14
aI6
aI21
aI17
aI18
aI21
aI20
aI21
aI22
aI46
aI2
aI6
aI26
aI21
aI28
aI46
aI21
aI6
aI17
aI21
aI21
aI0
aI21
aI37
aI2
aI0
aI40
aI41
aI0
aI21
aI44
aI6
aI46
aI47
aI48
aI21
aI2
aI6
aI52
aI21
aI6
aI55
aI6
aI0
aI58
aI59
aI52
aI17
aI21
aa(lp14
I0
aI21
aI2
aI0
aI21
aI5
aI21
aI7
aI2
aI9
aI10
aI11
ag2
aI21
aI2
aI21
aI21
aI2
aI2
aI21
aI2
aI21
aI22
aI21
aI24
aI21
aI2
aI21
aI21
aI21
aI21
aI21
aI52
aI33
aI21
aI0
aI21
aI37
aI38
aI0
aI21
aI41
aI0
aI21
aI44
aI21
aI21
aI21
aI48
aI21
aI50
aI21
aI52
aI53
aI21
aI0
aI21
aI0
aI58
aI2
aI21
aI52
aI21
aa(lp15
I21
aI21
aI21
aI21
aI21
aI21
aI21
aI21
aI21
aI21
aI21
aI21
aI21
ag2
aI21
aI21
aI16
aI21
aI21
aI21
aI21
aI21
aI21
aI21
aI21
aI21
aI21
aI21
aI16
aI21
aI21
aI21
aI21
aI21
aI34
aI21
aI36
aI37
aI21
aI21
aI40
aI21
aI21
aI43
aI21
aI21
aI21
aI21
aI21
aI21
aI21
aI21
aI21
aI53
aI21
aI21
aI21
aI21
aI21
aI21
aI21
aI21
aI62
aa(lp16
I11
aI28
aI2
aI55
aI28
aI2
aI11
aI11
aI8
aI2
aI11
aI11
aI2
aI2
ag2
aI46
aI28
aI17
aI18
aI46
aI20
aI41
aI11
aI46
aI2
aI47
aI26
aI41
aI28
aI46
aI46
aI41
aI17
aI2
aI41
aI55
aI41
aI11
aI2
aI55
aI41
aI41
aI55
aI41
aI11
aI46
aI46
aI47
aI11
aI46
aI2
aI41
aI11
aI2
aI41
aI55
aI47
aI17
aI11
aI59
aI17
aI17
aI41
aa(lp17
I6
aI1
aI21
aI6
aI4
aI21
aI6
aI6
aI46
aI21
aI10
aI6
aI21
aI21
aI46
ag2
aI21
aI46
aI46
aI19
aI46
aI21
aI6
aI23
aI24
aI25
aI46
aI27
aI46
aI29
aI30
aI31
aI23
aI21
aI21
aI6
aI21
aI21
aI21
aI6
aI21
aI21
aI6
aI43
aI6
aI45
aI46
aI47
aI6
aI49
aI21
aI51
aI6
aI21
aI1
aI46
aI56
aI23
aI6
aI46
aI1
aI23
aI21
aa(lp18
I21
aI21
aI21
aI21
aI4
aI21
aI21
aI21
aI28
aI21
aI10
aI21
aI21
aI13
aI28
aI21
ag2
aI28
aI28
aI21
aI28
aI21
aI21
aI21
aI21
aI21
aI28
aI21
aI28
aI21
aI21
aI21
aI28
aI33
aI34
aI21
aI36
aI37
aI21
aI21
aI40
aI21
aI21
aI43
aI21
aI21
aI21
aI21
aI21
aI21
aI21
aI51
aI21
aI53
aI21
aI21
aI21
aI21
aI21
aI28
aI21
aI28
aI62
aa(lp19
I11
aI28
aI2
aI55
aI28
aI2
aI28
aI52
aI8
aI2
aI28
aI11
aI2
aI28
aI14
aI46
aI28
ag2
aI18
aI46
aI20
aI28
aI11
aI23
aI2
aI47
aI26
aI28
aI28
aI29
aI46
aI28
aI32
aI28
aI28
aI55
aI28
aI11
aI2
aI55
aI28
aI41
aI55
aI28
aI52
aI46
aI46
aI47
aI52
aI46
aI2
aI28
aI52
aI2
aI41
aI55
aI47
aI57
aI52
aI59
aI60
aI61
aI28
aa(lp20
I11
aI28
aI2
aI55
aI28
aI2
aI11
aI11
aI8
aI2
aI11
aI11
aI2
aI2
aI14
aI46
aI28
aI17
ag2
aI46
aI20
aI41
aI11
aI46
aI2
aI47
aI26
aI41
aI28
aI46
aI46
aI41
aI17
aI2
aI41
aI55
aI41
aI11
aI2
aI55
aI41
aI41
aI55
aI41
aI11
aI46
aI46
aI47
aI11
aI46
aI2
aI41
aI11
aI2
aI41
aI55
aI47
aI17
aI11
aI59
aI17
aI17
aI41
aa(lp21
I21
aI1
aI21
aI21
aI1
aI21
aI21
aI21
aI46
aI21
aI21
aI21
aI21
aI21
aI46
aI15
aI21
aI46
aI46
ag2
aI46
aI21
aI21
aI23
aI15
aI15
aI46
aI27
aI46
aI29
aI30
aI21
aI23
aI21
aI21
aI21
aI21
aI21
aI21
aI21
aI21
aI21
aI21
aI43
aI21
aI45
aI46
aI15
aI21
aI49
aI21
aI1
aI21
aI21
aI1
aI46
aI15
aI23
aI21
aI46
aI1
aI23
aI21
aa(lp22
I11
aI28
aI2
aI55
aI28
aI2
aI11
aI11
aI8
aI2
aI11
aI11
aI2
aI2
aI14
aI46
aI28
aI17
aI18
aI46
ag2
aI41
aI11
aI46
aI2
aI47
aI26
aI41
aI28
aI46
aI46
aI41
aI17
aI2
aI41
aI55
aI41
aI11
aI2
aI55
aI41
aI41
aI55
aI41
aI11
aI46
aI46
aI47
aI11
aI46
aI2
aI41
aI11
aI2
aI41
aI55
aI47
aI17
aI11
aI59
aI17
aI17
aI41
aa(lp23
I0
aI1
aI2
aI7
aI4
aI5
aI6
aI7
aI41
aI9
aI10
aI11
aI12
aI13
aI41
aI15
aI16
aI28
aI41
aI19
aI41
ag2
aI22
aI23
aI24
aI6
aI41
aI27
aI28
aI29
aI30
aI6
aI52
aI33
aI34
aI7
aI36
aI37
aI38
aI7
aI40
aI41
aI7
aI43
aI44
aI45
aI46
aI6
aI48
aI49
aI50
aI51
aI52
aI53
aI54
aI7
aI6
aI7
aI58
aI41
aI60
aI52
aI62
aa(lp24
I0
aI21
aI11
aI0
aI6
aI12
aI6
aI7
aI11
aI12
aI10
aI11
aI12
aI21
aI11
aI6
aI21
aI11
aI11
aI21
aI11
aI21
ag2
aI21
aI6
aI6
aI11
aI21
aI6
aI21
aI21
aI6
aI52
aI21
aI21
aI0
aI21
aI37
aI12
aI0
aI40
aI21
aI0
aI21
aI44
aI6
aI11
aI6
aI48
aI21
aI12
aI6
aI52
aI21
aI6
aI0
aI6
aI0
aI58
aI11
aI52
aI52
aI21
aa(lp25
I21
aI1
aI46
aI57
aI1
aI21
aI21
aI21
aI46
aI21
aI21
aI46
aI21
aI21
aI46
aI15
aI21
aI17
aI46
aI19
aI46
aI21
aI21
ag2
aI15
aI15
aI46
aI27
aI28
aI29
aI30
aI21
aI32
aI21
aI21
aI57
aI21
aI21
aI21
aI57
aI21
aI21
aI57
aI43
aI21
aI45
aI46
aI46
aI21
aI49
aI21
aI1
aI52
aI21
aI1
aI46
aI15
aI57
aI21
aI46
aI60
aI61
aI21
aa(lp26
I6
aI21
aI2
aI6
aI4
aI5
aI6
aI6
aI2
aI9
aI10
aI2
aI12
aI21
aI2
aI15
aI21
aI2
aI2
aI15
aI2
aI21
aI6
aI15
ag2
aI25
aI2
aI27
aI2
aI15
aI15
aI31
aI6
aI33
aI21
aI6
aI21
aI21
aI38
aI6
aI21
aI41
aI6
aI21
aI6
aI45
aI2
aI47
aI6
aI15
aI50
aI51
aI6
aI53
aI4
aI2
aI56
aI6
aI6
aI2
aI4
aI6
aI21
aa(lp27
I6
aI4
aI24
aI6
aI4
aI24
aI6
aI6
aI47
aI24
aI10
aI6
aI6
aI6
aI47
aI15
aI6
aI47
aI47
aI15
aI47
aI6
aI6
aI15
aI24
ag2
aI47
aI6
aI4
aI15
aI15
aI31
aI6
aI6
aI6
aI6
aI6
aI6
aI24
aI6
aI6
aI6
aI6
aI4
aI6
aI45
aI15
aI47
aI6
aI15
aI24
aI51
aI6
aI6
aI4
aI47
aI56
aI6
aI6
aI47
aI4
aI6
aI6
aa(lp28
I11
aI28
aI2
aI55
aI28
aI2
aI11
aI11
aI8
aI2
aI11
aI11
aI2
aI2
aI14
aI46
aI28
aI17
aI18
aI46
aI20
aI41
aI11
aI46
aI2
aI47
ag2
aI41
aI28
aI46
aI46
aI41
aI17
aI2
aI41
aI55
aI41
aI11
aI2
aI55
aI41
aI41
aI55
aI41
aI11
aI46
aI46
aI47
aI11
aI46
aI2
aI41
aI11
aI2
aI41
aI55
aI47
aI17
aI11
aI59
aI17
aI17
aI41
aa(lp29
I21
aI1
aI2
aI21
aI21
aI5
aI21
aI21
aI21
aI9
aI21
aI21
aI21
aI21
aI21
aI15
aI21
aI28
aI21
aI19
aI21
aI21
aI21
aI23
aI24
aI21
aI21
ag2
aI28
aI29
aI30
aI21
aI21
aI33
aI21
aI21
aI21
aI21
aI38
aI21
aI21
aI21
aI21
aI43
aI21
aI45
aI46
aI21
aI21
aI49
aI50
aI21
aI21
aI21
aI21
aI21
aI21
aI21
aI21
aI21
aI21
aI21
aI21
aa(lp30
I6
aI1
aI2
aI55
aI4
aI2
aI6
aI6
aI8
aI2
aI10
aI11
aI21
aI16
aI14
aI46
aI16
aI17
aI18
aI46
aI20
aI21
aI6
aI23
aI2
aI4
aI26
aI27
ag2
aI29
aI46
aI4
aI32
aI33
aI21
aI55
aI16
aI21
aI2
aI55
aI40
aI41
aI55
aI43
aI6
aI46
aI46
aI47
aI6
aI46
aI2
aI51
aI52
aI21
aI1
aI55
aI4
aI57
aI6
aI59
aI60
aI61
aI16
aa(lp31
I21
aI1
aI46
aI57
aI1
aI21
aI21
aI21
aI46
aI21
aI21
aI46
aI21
aI21
aI46
aI15
aI21
aI17
aI46
aI19
aI46
aI21
aI21
aI23
aI15
aI15
aI46
aI27
aI28
ag2
aI30
aI21
aI32
aI21
aI21
aI57
aI21
aI21
aI21
aI57
aI21
aI21
aI57
aI43
aI21
aI45
aI46
aI46
aI21
aI49
aI21
aI1
aI52
aI21
aI1
aI46
aI15
aI57
aI21
aI46
aI60
aI61
aI21
aa(lp32
I21
aI1
aI21
aI21
aI1
aI21
aI21
aI21
aI46
aI21
aI21
aI21
aI21
aI21
aI46
aI15
aI21
aI46
aI46
aI19
aI46
aI21
aI21
aI23
aI15
aI15
aI46
aI27
aI46
aI29
ag2
aI21
aI23
aI21
aI21
aI21
aI21
aI21
aI21
aI21
aI21
aI21
aI21
aI43
aI21
aI45
aI46
aI15
aI21
aI49
aI21
aI1
aI21
aI21
aI1
aI46
aI15
aI23
aI21
aI46
aI1
aI23
aI21
aa(lp33
I6
aI1
aI41
aI6
aI4
aI6
aI6
aI7
aI41
aI6
aI6
aI6
aI6
aI6
aI41
aI15
aI6
aI4
aI41
aI6
aI41
aI6
aI6
aI6
aI24
aI25
aI41
aI6
aI4
aI6
aI6
ag2
aI6
aI6
aI34
aI6
aI6
aI6
aI6
aI6
aI6
aI41
aI6
aI43
aI6
aI45
aI6
aI47
aI6
aI6
aI6
aI51
aI52
aI6
aI54
aI6
aI56
aI6
aI6
aI41
aI60
aI6
aI6
aa(lp34
I52
aI23
aI17
aI57
aI28
aI17
aI52
aI52
aI17
aI52
aI52
aI17
aI52
aI52
aI17
aI23
aI28
aI17
aI17
aI23
aI17
aI52
aI52
aI23
aI52
aI52
aI17
aI52
aI28
aI29
aI23
aI52
ag2
aI52
aI52
aI57
aI52
aI52
aI52
aI57
aI52
aI17
aI57
aI52
aI52
aI23
aI46
aI17
aI52
aI23
aI52
aI52
aI52
aI52
aI52
aI17
aI52
aI57
aI52
aI17
aI60
aI61
aI52
aa(lp35
I21
aI21
aI2
aI21
aI4
aI5
aI21
aI21
aI2
aI9
aI10
aI21
aI12
aI21
aI2
aI21
aI16
aI28
aI2
aI21
aI2
aI21
aI21
aI21
aI24
aI21
aI2
aI27
aI28
aI21
aI21
aI21
aI21
ag2
aI21
aI21
aI21
aI21
aI38
aI21
aI21
aI41
aI21
aI21
aI21
aI21
aI21
aI21
aI21
aI21
aI50
aI51
aI21
aI53
aI21
aI2
aI21
aI21
aI21
aI2
aI21
aI21
aI21
aa(lp36
I7
aI21
aI21
aI7
aI4
aI21
aI21
aI7
aI21
aI21
aI21
aI21
aI21
aI13
aI21
aI21
aI16
aI21
aI21
aI21
aI21
aI21
aI21
aI21
aI21
aI21
aI21
aI21
aI21
aI21
aI21
aI31
aI21
aI21
ag2
aI7
aI36
aI37
aI21
aI7
aI40
aI41
aI7
aI43
aI7
aI21
aI21
aI21
aI7
aI21
aI21
aI51
aI52
aI53
aI54
aI7
aI21
aI7
aI7
aI21
aI60
aI21
aI62
aa(lp37
I0
aI7
aI55
aI3
aI7
aI7
aI7
aI7
aI55
aI7
aI7
aI0
aI0
aI7
aI55
aI7
aI7
aI55
aI55
aI7
aI55
aI7
aI0
aI57
aI7
aI7
aI55
aI7
aI55
aI57
aI7
aI7
aI57
aI7
aI7
ag2
aI7
aI0
aI7
aI39
aI7
aI7
aI42
aI7
aI44
aI7
aI55
aI55
aI48
aI7
aI7
aI7
aI7
aI7
aI7
aI55
aI7
aI57
aI58
aI55
aI7
aI57
aI7
aa(lp38
I21
aI21
aI21
aI21
aI21
aI21
aI21
aI21
aI21
aI21
aI21
aI21
aI21
aI13
aI21
aI21
aI16
aI16
aI21
aI21
aI21
aI21
aI21
aI21
aI21
aI21
aI21
aI21
aI16
aI21
aI21
aI21
aI21
aI21
aI34
aI21
ag2
aI37
aI21
aI21
aI40
aI21
aI21
aI43
aI21
aI21
aI21
aI21
aI21
aI21
aI21
aI21
aI21
aI53
aI21
aI21
aI21
aI21
aI21
aI21
aI21
aI21
aI62
aa(lp39
I0
aI21
aI21
aI0
aI21
aI21
aI21
aI7
aI11
aI21
aI10
aI11
aI12
aI13
aI11
aI21
aI16
aI11
aI11
aI21
aI11
aI21
aI22
aI21
aI21
aI21
aI11
aI21
aI21
aI21
aI21
aI21
aI21
aI21
aI34
aI0
aI36
ag2
aI21
aI0
aI40
aI21
aI0
aI21
aI44
aI21
aI21
aI21
aI48
aI21
aI21
aI21
aI52
aI53
aI21
aI0
aI21
aI0
aI58
aI11
aI21
aI21
aI62
aa(lp40
I12
aI21
aI2
aI21
aI21
aI5
aI21
aI21
aI2
aI9
aI21
aI2
aI12
aI21
aI2
aI21
aI21
aI2
aI2
aI21
aI2
aI21
aI12
aI21
aI24
aI24
aI2
aI27
aI2
aI21
aI21
aI21
aI21
aI33
aI21
aI21
aI21
aI21
ag2
aI21
aI21
aI41
aI21
aI21
aI21
aI21
aI2
aI2
aI21
aI21
aI50
aI21
aI21
aI53
aI21
aI2
aI24
aI21
aI21
aI2
aI21
aI21
aI21
aa(lp41
I0
aI7
aI55
aI3
aI7
aI7
aI7
aI7
aI55
aI7
aI7
aI0
aI0
aI7
aI55
aI7
aI7
aI55
aI55
aI7
aI55
aI7
aI0
aI57
aI7
aI7
aI55
aI7
aI55
aI57
aI7
aI7
aI57
aI7
aI7
aI35
aI7
aI0
aI7
ag2
aI7
aI7
aI42
aI7
aI44
aI7
aI55
aI55
aI48
aI7
aI7
aI7
aI7
aI7
aI7
aI55
aI7
aI57
aI58
aI55
aI7
aI57
aI7
aa(lp42
I0
aI1
aI21
aI7
aI4
aI21
aI6
aI7
aI21
aI21
aI10
aI11
aI21
aI13
aI21
aI21
aI16
aI28
aI21
aI21
aI21
aI21
aI22
aI21
aI21
aI6
aI21
aI21
aI28
aI21
aI21
aI6
aI52
aI21
aI34
aI7
aI36
aI37
aI21
aI7
ag2
aI21
aI7
aI43
aI44
aI21
aI21
aI6
aI48
aI21
aI21
aI51
aI52
aI21
aI54
aI7
aI6
aI7
aI58
aI21
aI60
aI52
aI62
aa(lp43
I7
aI21
aI2
aI7
aI4
aI5
aI21
aI7
aI8
aI9
aI21
aI11
aI12
aI21
aI14
aI21
aI21
aI17
aI18
aI21
aI20
aI21
aI21
aI21
aI24
aI21
aI26
aI21
aI28
aI21
aI21
aI31
aI17
aI33
aI34
aI7
aI21
aI21
aI38
aI7
aI21
ag2
aI7
aI21
aI7
aI21
aI46
aI47
aI7
aI21
aI50
aI51
aI52
aI53
aI54
aI55
aI21
aI7
aI7
aI59
aI60
aI17
aI21
aa(lp44
I0
aI7
aI55
aI3
aI7
aI7
aI7
aI7
aI55
aI7
aI7
aI0
aI0
aI7
aI55
aI7
aI7
aI55
aI55
aI7
aI55
aI7
aI0
aI57
aI7
aI7
aI55
aI7
aI55
aI57
aI7
aI7
aI57
aI7
aI7
aI35
aI7
aI0
aI7
aI39
aI7
aI7
ag2
aI7
aI44
aI7
aI55
aI55
aI48
aI7
aI7
aI7
aI7
aI7
aI7
aI55
aI7
aI57
aI58
aI55
aI7
aI57
aI7
aa(lp45
I21
aI1
aI21
aI21
aI4
aI21
aI6
aI21
aI21
aI21
aI21
aI21
aI21
aI13
aI21
aI15
aI16
aI28
aI21
aI19
aI21
aI21
aI21
aI23
aI21
aI4
aI21
aI27
aI28
aI29
aI30
aI31
aI21
aI21
aI34
aI21
aI36
aI21
aI21
aI21
aI40
aI21
aI21
ag2
aI21
aI45
aI46
aI4
aI21
aI49
aI21
aI51
aI21
aI21
aI54
aI21
aI4
aI21
aI21
aI21
aI60
aI21
aI62
aa(lp46
I0
aI7
aI7
aI3
aI6
aI7
aI6
aI7
aI11
aI7
aI10
aI11
aI12
aI7
aI11
aI6
aI7
aI7
aI11
aI7
aI11
aI21
aI22
aI7
aI6
aI6
aI11
aI7
aI6
aI7
aI7
aI6
aI7
aI7
aI7
aI35
aI7
aI37
aI7
aI39
aI40
aI7
aI42
aI7
ag2
aI6
aI7
aI6
aI48
aI7
aI7
aI6
aI52
aI7
aI7
aI55
aI6
aI57
aI58
aI11
aI7
aI7
aI7
aa(lp47
I6
aI1
aI21
aI6
aI4
aI21
aI6
aI6
aI46
aI21
aI10
aI6
aI21
aI21
aI46
aI15
aI21
aI46
aI46
aI19
aI46
aI21
aI6
aI23
aI24
aI25
aI46
aI27
aI46
aI29
aI30
aI31
aI23
aI21
aI21
aI6
aI21
aI21
aI21
aI6
aI21
aI21
aI6
aI43
aI6
ag2
aI46
aI47
aI6
aI49
aI21
aI51
aI6
aI21
aI1
aI46
aI56
aI23
aI6
aI46
aI1
aI23
aI21
aa(lp48
I11
aI1
aI2
aI55
aI1
aI2
aI21
aI21
aI8
aI2
aI21
aI11
aI21
aI21
aI14
aI15
aI21
aI17
aI18
aI19
aI20
aI21
aI11
aI23
aI2
aI15
aI26
aI27
aI28
aI29
aI30
aI21
aI32
aI21
aI21
aI55
aI21
aI21
aI2
aI55
aI21
aI41
aI55
aI43
aI21
aI45
ag2
aI47
aI21
aI49
aI2
aI1
aI52
aI21
aI1
aI55
aI15
aI57
aI21
aI59
aI60
aI61
aI21
aa(lp49
I6
aI4
aI2
aI55
aI4
aI2
aI6
aI6
aI8
aI2
aI10
aI11
aI6
aI6
aI14
aI15
aI6
aI17
aI18
aI15
aI20
aI6
aI6
aI46
aI24
aI25
aI26
aI6
aI28
aI46
aI15
aI31
aI17
aI6
aI6
aI55
aI6
aI6
aI2
aI55
aI6
aI41
aI55
aI4
aI6
aI45
aI46
ag2
aI6
aI15
aI2
aI51
aI6
aI6
aI4
aI55
aI56
aI17
aI6
aI59
aI4
aI17
aI6
aa(lp50
I0
aI7
aI7
aI3
aI6
aI7
aI6
aI7
aI11
aI7
aI10
aI11
aI12
aI7
aI11
aI6
aI7
aI7
aI11
aI7
aI11
aI21
aI22
aI7
aI6
aI6
aI11
aI7
aI6
aI7
aI7
aI6
aI7
aI7
aI7
aI35
aI7
aI37
aI7
aI39
aI40
aI7
aI42
aI7
aI44
aI6
aI7
aI6
ag2
aI7
aI7
aI6
aI52
aI7
aI7
aI55
aI6
aI57
aI58
aI11
aI7
aI7
aI7
aa(lp51
I21
aI1
aI21
aI21
aI1
aI21
aI21
aI21
aI46
aI21
aI21
aI21
aI21
aI21
aI46
aI15
aI21
aI46
aI46
aI19
aI46
aI21
aI21
aI23
aI15
aI15
aI46
aI27
aI46
aI29
aI30
aI21
aI23
aI21
aI21
aI21
aI21
aI21
aI21
aI21
aI21
aI21
aI21
aI43
aI21
aI45
aI46
aI15
aI21
ag2
aI21
aI1
aI21
aI21
aI1
aI46
aI15
aI23
aI21
aI46
aI1
aI23
aI21
aa(lp52
I12
aI21
aI2
aI21
aI21
aI5
aI21
aI21
aI2
aI9
aI21
aI2
aI12
aI21
aI2
aI21
aI21
aI2
aI2
aI21
aI2
aI21
aI12
aI21
aI24
aI24
aI2
aI27
aI2
aI21
aI21
aI21
aI21
aI33
aI21
aI21
aI21
aI21
aI38
aI21
aI21
aI41
aI21
aI21
aI21
aI21
aI2
aI2
aI21
aI21
ag2
aI21
aI21
aI53
aI21
aI2
aI24
aI21
aI21
aI2
aI21
aI21
aI21
aa(lp53
I6
aI1
aI21
aI6
aI4
aI21
aI6
aI6
aI21
aI21
aI10
aI6
aI21
aI21
aI21
aI15
aI16
aI28
aI21
aI1
aI21
aI21
aI6
aI1
aI24
aI25
aI21
aI21
aI28
aI1
aI1
aI31
aI6
aI33
aI34
aI6
aI21
aI21
aI21
aI6
aI40
aI41
aI6
aI43
aI6
aI45
aI1
aI47
aI6
aI1
aI21
ag2
aI6
aI21
aI54
aI6
aI56
aI6
aI6
aI21
aI60
aI6
aI21
aa(lp54
I0
aI21
aI21
aI7
aI6
aI21
aI6
aI7
aI11
aI21
aI6
aI11
aI12
aI21
aI11
aI6
aI21
aI17
aI11
aI21
aI11
aI21
aI22
aI23
aI6
aI6
aI11
aI21
aI28
aI29
aI21
aI31
aI32
aI21
aI34
aI7
aI21
aI37
aI21
aI7
aI40
aI41
aI7
aI21
aI44
aI6
aI46
aI6
aI48
aI21
aI21
aI6
ag2
aI21
aI54
aI7
aI6
aI57
aI58
aI11
aI60
aI61
aI21
aa(lp55
I21
aI21
aI2
aI21
aI21
aI5
aI21
aI21
aI2
aI9
aI21
aI21
aI12
aI13
aI2
aI21
aI16
aI2
aI2
aI21
aI2
aI21
aI21
aI21
aI24
aI21
aI2
aI21
aI21
aI21
aI21
aI21
aI21
aI33
aI34
aI21
aI36
aI37
aI38
aI21
aI21
aI41
aI21
aI21
aI21
aI21
aI21
aI21
aI21
aI21
aI50
aI21
aI21
ag2
aI21
aI2
aI21
aI21
aI21
aI2
aI21
aI21
aI62
aa(lp56
I7
aI1
aI41
aI7
aI4
aI21
aI6
aI7
aI41
aI21
aI6
aI6
aI21
aI21
aI41
aI1
aI21
aI41
aI41
aI1
aI41
aI21
aI6
aI1
aI4
aI4
aI41
aI21
aI1
aI1
aI1
aI31
aI52
aI21
aI34
aI7
aI21
aI21
aI21
aI7
aI40
aI41
aI7
aI43
aI7
aI1
aI1
aI4
aI7
aI1
aI21
aI51
aI52
aI21
ag2
aI7
aI4
aI7
aI7
aI41
aI60
aI52
aI21
aa(lp57
I0
aI7
aI2
aI3
aI7
aI2
aI7
aI7
aI8
aI2
aI7
aI11
aI0
aI7
aI14
aI46
aI7
aI17
aI18
aI46
aI20
aI7
aI0
aI46
aI2
aI47
aI26
aI7
aI28
aI46
aI46
aI7
aI17
aI2
aI7
aI35
aI7
aI0
aI2
aI39
aI7
aI41
aI42
aI7
aI44
aI46
aI46
aI47
aI48
aI46
aI2
aI7
aI7
aI2
aI7
ag2
aI47
aI57
aI58
aI59
aI7
aI17
aI7
aa(lp58
I6
aI4
aI24
aI6
aI4
aI24
aI6
aI6
aI47
aI24
aI10
aI6
aI6
aI6
aI47
aI15
aI6
aI47
aI47
aI15
aI47
aI6
aI6
aI15
aI24
aI25
aI47
aI6
aI4
aI15
aI15
aI31
aI6
aI6
aI6
aI6
aI6
aI6
aI24
aI6
aI6
aI6
aI6
aI4
aI6
aI45
aI15
aI47
aI6
aI15
aI24
aI51
aI6
aI6
aI4
aI47
ag2
aI6
aI6
aI47
aI4
aI6
aI6
aa(lp59
I0
aI7
aI17
aI3
aI7
aI7
aI7
aI7
aI17
aI7
aI7
aI0
aI0
aI7
aI17
aI23
aI7
aI17
aI17
aI23
aI17
aI7
aI0
aI23
aI7
aI7
aI17
aI7
aI28
aI29
aI23
aI7
aI32
aI7
aI7
aI35
aI7
aI0
aI7
aI39
aI7
aI7
aI42
aI7
aI44
aI23
aI46
aI17
aI48
aI23
aI7
aI7
aI52
aI7
aI7
aI55
aI7
ag2
aI58
aI17
aI60
aI61
aI7
aa(lp60
I0
aI7
aI7
aI3
aI6
aI7
aI6
aI7
aI11
aI7
aI10
aI11
aI12
aI7
aI11
aI6
aI7
aI7
aI11
aI7
aI11
aI21
aI22
aI7
aI6
aI6
aI11
aI7
aI6
aI7
aI7
aI6
aI7
aI7
aI7
aI35
aI7
aI37
aI7
aI39
aI40
aI7
aI42
aI7
aI44
aI6
aI7
aI6
aI48
aI7
aI7
aI6
aI52
aI7
aI7
aI55
aI6
aI57
ag2
aI11
aI7
aI7
aI7
aa(lp61
I11
aI41
aI2
aI55
aI28
aI2
aI41
aI11
aI8
aI2
aI11
aI11
aI2
aI41
aI14
aI46
aI28
aI17
aI18
aI46
aI20
aI41
aI11
aI46
aI2
aI47
aI26
aI41
aI28
aI46
aI46
aI41
aI17
aI2
aI41
aI55
aI41
aI11
aI2
aI55
aI41
aI41
aI55
aI41
aI11
aI46
aI46
aI47
aI11
aI46
aI2
aI41
aI11
aI2
aI41
aI55
aI47
aI17
aI11
ag2
aI17
aI17
aI41
aa(lp62
I7
aI1
aI41
aI7
aI4
aI21
aI6
aI7
aI17
aI21
aI6
aI52
aI21
aI21
aI17
aI1
aI21
aI17
aI17
aI1
aI17
aI21
aI52
aI23
aI4
aI4
aI17
aI21
aI28
aI29
aI1
aI31
aI32
aI21
aI34
aI7
aI21
aI21
aI21
aI7
aI40
aI41
aI7
aI43
aI7
aI1
aI46
aI4
aI7
aI1
aI21
aI51
aI52
aI21
aI54
aI7
aI4
aI57
aI7
aI17
ag2
aI61
aI21
aa(lp63
I52
aI52
aI17
aI57
aI52
aI52
aI52
aI52
aI17
aI52
aI52
aI17
aI52
aI52
aI17
aI23
aI28
aI17
aI17
aI23
aI17
aI52
aI52
aI23
aI52
aI52
aI17
aI52
aI28
aI29
aI23
aI52
aI32
aI52
aI52
aI57
aI52
aI52
aI52
aI57
aI52
aI17
aI57
aI52
aI52
aI23
aI46
aI17
aI52
aI23
aI52
aI52
aI52
aI52
aI52
aI17
aI52
aI57
aI52
aI17
aI60
ag2
aI52
aa(lp64
I21
aI21
aI21
aI21
aI21
aI21
aI21
aI21
aI21
aI21
aI21
aI21
aI21
aI13
aI21
aI21
aI16
aI16
aI21
aI21
aI21
aI21
aI21
aI21
aI21
aI21
aI21
aI21
aI16
aI21
aI21
aI21
aI21
aI21
aI34
aI21
aI36
aI37
aI21
aI21
aI40
aI21
aI21
aI43
aI21
aI21
aI21
aI21
aI21
aI21
aI21
aI21
aI21
aI53
aI21
aI21
aI21
aI21
aI21
aI21
aI21
aI21
ag2
aa.