(lp0
VAin't No Rest for the Wicked
p1
aVTake Me Out
p2
aVNo One Knows
p3
aVFloat On
p4
aVTell Me A Lie
p5
aVGirl, You Have No Faith In Medicine
p6
aVCreepin Up The Backstairs
p7
aVIn One Ear
p8
aVGirl Is On My Mind
p9
aVAcid Jazz Singer
p10
aVPerhaps Vampires Is A Bit Strong But\u2026
p11
aVIf You Were There, Beware
p12
aVShort Skirt / Long Jacket
p13
aVApple Blossom
p14
aVThe Fallen
p15
aVFlathead
p16
aVThe Denial Twist
p17
aV1901
p18
aVWhistle For The Choir
p19
aVFever
p20
aVRun
p21
aVRag And Bone
p22
aVThis Fire
p23
aVDo I Wanna Know?
p24
aVRed Light Indicates Doors Are Secured
p25
aVI Bet You Look Good On The Dancefloor
p26
aVNext Girl
p27
aVOxford Comma
p28
aVM79
p29
aVBlue Orchid
p30
aVHowlin' For You
p31
aVHenrietta
p32
aVHorchata
p33
aVGot Ma Nuts From A Hippie
p34
aVThe Hardest Button To Button
p35
aVLevel
p36
aVIcky Thump
p37
aVTen Cent Pistol
p38
aVSt. James Infirmary Blues
p39
aVSteady, As She Goes
p40
aVTighten Up
p41
aVWell That Was Easy
p42
aVDashboard
p43
aVGold On The Ceiling
p44
aVLampshades On Fire
p45
aVChelsea Dagger
p46
aVWhy'd You Only Call Me When You're High?
p47
aVFake Tales Of San Francisco
p48
aVClint Eastwood
p49
aVUnbelievers
p50
aV505
p51
aVFluorescent Adolescent
p52
aVUlysses
p53
aVCatch Hell Blues
p54
aVConquest
p55
aVIf I ever feel better
p56
aVBrianstorm
p57
aVLisztomania
p58
aVFeel Good Inc
p59
aV3's & 7's
p60
aVHeavy Soul
p61
aVI'm Not The One
p62
aVLonely Boy
p63
a.