(lp0
(lp1
Finf
aF1.3333333333333333
aF2.0
aF1.0
aF1.3333333333333333
aF2.0
aF1.0
aF0.5
aF2.0
aF2.0
aF1.0
aF1.0
aF1.0
aF2.0
aF2.0
aF2.0
aF1.5
aF2.0
aF2.0
aF2.0
aF2.0
aF1.0
aF1.0
aF2.0
aF2.0
aF2.0
aF2.0
aF1.3333333333333333
aF2.0
aF2.0
aF2.0
aF1.5
aF2.0
aF1.5
aF1.5
aF1.0
aF2.0
aF1.0
aF2.0
aF1.0
aF1.0
aF1.5
aF1.0
aF1.25
aF0.5
aF2.0
aF2.0
aF2.0
aF0.5
aF2.0
aF2.0
aF1.3333333333333333
aF1.0
aF1.5
aF1.5
aF1.0
aF2.0
aF1.0
aF0.5
aF2.0
aF1.5
aF2.0
aF2.0
aa(lp2
F1.3333333333333333
aFinf
aF1.3333333333333333
aF2.0
aF0.5
aF1.3333333333333333
aF0.5
aF0.8333333333333333
aF2.0
aF1.3333333333333333
aF0.8333333333333333
aF1.3333333333333333
aF0.8333333333333333
aF1.3333333333333333
aF2.0
aF1.0
aF0.8333333333333333
aF1.5
aF2.0
aF1.0
aF2.0
aF0.3333333333333333
aF1.3333333333333333
aF1.0
aF1.3333333333333333
aF1.5
aF2.0
aF0.5
aF1.0
aF1.0
aF1.0
aF1.0
aF2.0
aF0.8333333333333333
aF0.8333333333333333
aF1.8333333333333333
aF1.3333333333333333
aF0.8333333333333333
aF1.3333333333333333
aF1.8333333333333333
aF0.5
aF0.8333333333333333
aF1.8333333333333333
aF0.3333333333333333
aF1.3333333333333333
aF1.0
aF1.0
aF1.5
aF1.3333333333333333
aF1.0
aF1.3333333333333333
aF0.5
aF0.8333333333333333
aF0.8333333333333333
aF1.0
aF1.8333333333333333
aF1.5
aF1.8333333333333333
aF1.3333333333333333
aF1.8333333333333333
aF1.0
aF1.8333333333333333
aF1.3333333333333333
aa(lp3
F2.0
aF1.3333333333333333
aFinf
aF2.0
aF1.5
aF1.0
aF1.3333333333333333
aF1.5
aF1.0
aF1.0
aF1.5
aF1.0
aF1.0
aF2.0
aF1.0
aF2.0
aF1.5
aF1.0
aF1.0
aF2.0
aF1.0
aF1.0
aF2.0
aF1.5
aF1.0
aF2.0
aF1.0
aF1.0
aF1.0
aF1.5
aF2.0
aF1.5
aF2.0
aF1.0
aF1.5
aF2.0
aF2.0
aF1.5
aF1.0
aF2.0
aF1.25
aF0.5
aF2.0
aF1.25
aF2.0
aF2.0
aF1.0
aF1.0
aF2.0
aF2.0
aF1.0
aF1.5
aF1.5
aF1.0
aF1.5
aF1.0
aF2.0
aF2.0
aF2.0
aF1.0
aF1.5
aF2.0
aF2.0
aa(lp4
F1.0
aF2.0
aF2.0
aFinf
aF2.0
aF3.0
aF1.5
aF1.0
aF2.0
aF3.0
aF1.8333333333333333
aF2.0
aF2.0
aF3.0
aF2.0
aF2.5
aF2.5
aF2.0
aF2.0
aF3.0
aF2.0
aF1.5
aF2.0
aF2.0
aF2.5
aF2.5
aF2.0
aF1.8333333333333333
aF2.0
aF2.0
aF2.5
aF2.0
aF2.0
aF2.0
aF2.0
aF1.0
aF2.5
aF2.0
aF2.5
aF1.0
aF1.5
aF2.0
aF1.0
aF1.75
aF1.0
aF2.5
aF2.0
aF2.0
aF1.0
aF2.5
aF2.5
aF1.8333333333333333
aF1.5
aF2.0
aF2.0
aF1.0
aF2.5
aF1.0
aF1.0
aF2.0
aF2.0
aF2.0
aF2.5
aa(lp5
F1.3333333333333333
aF0.5
aF1.5
aF2.0
aFinf
aF1.5
aF0.3333333333333333
aF0.8333333333333333
aF2.0
aF1.5
aF0.5
aF1.3333333333333333
aF1.0
aF1.5
aF2.0
aF1.0
aF1.0
aF1.5
aF2.0
aF1.5
aF2.0
aF0.5
aF1.3333333333333333
aF1.5
aF1.0
aF1.0
aF2.0
aF0.8333333333333333
aF1.0
aF1.5
aF1.5
aF0.5
aF2.0
aF1.0
aF1.0
aF1.8333333333333333
aF1.5
aF1.0
aF1.5
aF1.8333333333333333
aF0.5
aF1.0
aF1.8333333333333333
aF0.5
aF1.3333333333333333
aF1.0
aF1.5
aF1.0
aF1.3333333333333333
aF1.5
aF1.5
aF0.3333333333333333
aF0.8333333333333333
aF1.0
aF1.0
aF1.8333333333333333
aF1.0
aF1.8333333333333333
aF1.3333333333333333
aF2.0
aF1.0
aF1.8333333333333333
aF1.5
aa(lp6
F2.0
aF1.3333333333333333
aF1.0
aF3.0
aF1.5
aFinf
aF1.3333333333333333
aF1.5
aF2.0
aF1.0
aF1.5
aF2.0
aF1.0
aF2.0
aF2.0
aF2.0
aF1.5
aF2.0
aF2.0
aF2.0
aF2.0
aF1.0
aF2.0
aF2.0
aF1.0
aF2.0
aF2.0
aF1.0
aF2.0
aF2.0
aF2.0
aF1.8333333333333333
aF3.0
aF1.0
aF1.5
aF2.5
aF2.0
aF1.5
aF1.0
aF2.5
aF1.25
aF1.0
aF2.5
aF1.25
aF2.0
aF2.0
aF2.0
aF2.0
aF2.0
aF2.0
aF1.0
aF1.5
aF1.5
aF1.0
aF2.0
aF2.0
aF2.0
aF2.5
aF2.0
aF2.0
aF2.0
aF2.5
aF2.0
aa(lp7
F1.0
aF0.5
aF1.3333333333333333
aF1.5
aF0.3333333333333333
aF1.3333333333333333
aFinf
aF0.5
aF2.0
aF1.3333333333333333
aF0.3333333333333333
aF1.0
aF0.8333333333333333
aF1.3333333333333333
aF2.0
aF1.0
aF0.8333333333333333
aF1.5
aF2.0
aF1.3333333333333333
aF2.0
aF0.3333333333333333
aF1.0
aF1.3333333333333333
aF1.0
aF1.0
aF2.0
aF0.6666666666666666
aF1.0
aF1.3333333333333333
aF1.3333333333333333
aF0.5
aF1.5
aF0.8333333333333333
aF0.8333333333333333
aF1.5
aF1.3333333333333333
aF0.8333333333333333
aF1.3333333333333333
aF1.5
aF0.3333333333333333
aF0.8333333333333333
aF1.5
aF0.5
aF1.0
aF1.0
aF1.3333333333333333
aF1.0
aF1.0
aF1.3333333333333333
aF1.3333333333333333
aF0.3333333333333333
aF0.5
aF0.8333333333333333
aF1.0
aF1.5
aF1.0
aF1.5
aF1.0
aF1.8333333333333333
aF1.0
aF1.5
aF1.3333333333333333
aa(lp8
F0.5
aF0.8333333333333333
aF1.5
aF1.0
aF0.8333333333333333
aF1.5
aF0.5
aFinf
aF2.0
aF1.5
aF0.8333333333333333
aF1.0
aF1.0
aF1.5
aF2.0
aF1.5
aF1.0
aF1.5
aF2.0
aF1.5
aF2.0
aF0.5
aF1.0
aF1.5
aF1.5
aF1.5
aF2.0
aF0.8333333333333333
aF1.5
aF1.5
aF1.5
aF1.0
aF1.5
aF1.0
aF1.0
aF1.0
aF1.5
aF1.0
aF1.5
aF1.0
aF0.5
aF1.0
aF1.0
aF0.75
aF0.5
aF1.5
aF1.5
aF1.5
aF0.5
aF1.5
aF1.5
aF0.8333333333333333
aF0.5
aF1.0
aF1.0
aF1.0
aF1.5
aF1.0
aF0.5
aF2.0
aF1.0
aF1.5
aF1.5
aa(lp9
F2.0
aF2.0
aF1.0
aF2.0
aF2.0
aF2.0
aF2.0
aF2.0
aFinf
aF2.0
aF2.0
aF1.0
aF2.0
aF3.0
aF1.0
aF2.0
aF2.0
aF1.0
aF1.0
aF2.0
aF1.0
aF1.5
aF2.0
aF1.5
aF2.0
aF2.0
aF1.0
aF1.8333333333333333
aF1.0
aF1.5
aF2.0
aF2.0
aF2.0
aF2.0
aF2.0
aF2.0
aF2.5
aF2.0
aF2.0
aF2.0
aF1.75
aF1.0
aF2.0
aF1.75
aF2.0
aF2.0
aF1.0
aF1.0
aF2.0
aF2.0
aF2.0
aF2.0
aF2.0
aF2.0
aF2.0
aF1.0
aF2.0
aF2.0
aF2.0
aF1.0
aF2.0
aF2.0
aF2.5
aa(lp10
F2.0
aF1.3333333333333333
aF1.0
aF3.0
aF1.5
aF1.0
aF1.3333333333333333
aF1.5
aF2.0
aFinf
aF1.5
aF2.0
aF1.0
aF2.0
aF2.0
aF2.0
aF1.5
aF2.0
aF2.0
aF2.0
aF2.0
aF1.0
aF2.0
aF2.0
aF1.0
aF2.0
aF2.0
aF1.0
aF2.0
aF2.0
aF2.0
aF1.8333333333333333
aF2.833333333333333
aF1.0
aF1.5
aF2.5
aF2.0
aF1.5
aF1.0
aF2.5
aF1.25
aF1.0
aF2.5
aF1.25
aF2.0
aF2.0
aF2.0
aF2.0
aF2.0
aF2.0
aF1.0
aF1.5
aF1.5
aF1.0
aF2.0
aF2.0
aF2.0
aF2.5
aF2.0
aF2.0
aF2.0
aF2.5
aF2.0
aa(lp11
F1.0
aF0.8333333333333333
aF1.5
aF1.8333333333333333
aF0.5
aF1.5
aF0.3333333333333333
aF0.8333333333333333
aF2.0
aF1.5
aFinf
aF1.0
aF1.0
aF1.5
aF2.0
aF1.0
aF1.0
aF1.5
aF2.0
aF1.5
aF2.0
aF0.5
aF1.0
aF1.5
aF1.0
aF1.0
aF2.0
aF0.8333333333333333
aF1.0
aF1.5
aF1.5
aF0.8333333333333333
aF1.8333333333333333
aF1.0
aF1.0
aF1.8333333333333333
aF1.5
aF1.0
aF1.5
aF1.8333333333333333
aF0.5
aF1.0
aF1.8333333333333333
aF0.75
aF1.0
aF1.0
aF1.5
aF1.0
aF1.0
aF1.5
aF1.5
aF0.5
aF0.8333333333333333
aF1.0
aF1.3333333333333333
aF1.8333333333333333
aF1.0
aF1.8333333333333333
aF1.0
aF2.0
aF1.3333333333333333
aF1.8333333333333333
aF1.5
aa(lp12
F1.0
aF1.3333333333333333
aF1.0
aF2.0
aF1.3333333333333333
aF2.0
aF1.0
aF1.0
aF1.0
aF2.0
aF1.0
aFinf
aF1.0
aF2.0
aF1.0
aF2.0
aF1.5
aF1.0
aF1.0
aF2.0
aF1.0
aF1.0
aF1.0
aF1.5
aF2.0
aF2.0
aF1.0
aF1.3333333333333333
aF1.0
aF1.5
aF2.0
aF1.5
aF2.0
aF1.5
aF1.5
aF2.0
aF2.0
aF1.0
aF2.0
aF2.0
aF1.0
aF1.0
aF2.0
aF1.25
aF1.0
aF2.0
aF1.0
aF1.0
aF1.0
aF2.0
aF2.0
aF1.3333333333333333
aF1.0
aF1.5
aF2.0
aF1.0
aF2.0
aF2.0
aF1.0
aF1.0
aF1.5
aF2.0
aF2.0
aa(lp13
F1.0
aF0.8333333333333333
aF1.0
aF2.0
aF1.0
aF1.0
aF0.8333333333333333
aF1.0
aF2.0
aF1.0
aF1.0
aF1.0
aFinf
aF1.5
aF2.0
aF1.5
aF1.0
aF2.0
aF2.0
aF1.5
aF2.0
aF0.5
aF1.0
aF1.5
aF1.0
aF1.8333333333333333
aF2.0
aF0.8333333333333333
aF1.5
aF1.5
aF1.5
aF1.3333333333333333
aF2.0
aF1.0
aF1.0
aF2.0
aF1.5
aF1.0
aF1.0
aF2.0
aF0.75
aF1.0
aF2.0
aF0.75
aF1.0
aF1.5
aF1.5
aF1.8333333333333333
aF1.0
aF1.5
aF1.0
aF1.0
aF1.0
aF1.0
aF1.5
aF2.0
aF1.8333333333333333
aF2.0
aF1.0
aF2.0
aF1.5
aF2.0
aF1.5
aa(lp14
F2.0
aF1.3333333333333333
aF2.0
aF3.0
aF1.5
aF2.0
aF1.3333333333333333
aF1.5
aF3.0
aF2.0
aF1.5
aF2.0
aF1.5
aFinf
aF3.0
aF2.0
aF1.0
aF2.833333333333333
aF3.0
aF2.0
aF3.0
aF1.0
aF2.0
aF2.0
aF2.0
aF2.333333333333333
aF3.0
aF1.3333333333333333
aF2.0
aF2.0
aF2.0
aF1.8333333333333333
aF2.833333333333333
aF1.5
aF1.0
aF2.5
aF1.0
aF1.0
aF2.0
aF2.5
aF1.0
aF1.5
aF2.5
aF1.0
aF2.0
aF2.0
aF2.0
aF2.333333333333333
aF2.0
aF2.0
aF2.0
aF1.5
aF1.5
aF1.0
aF2.0
aF2.5
aF2.333333333333333
aF2.5
aF2.0
aF2.5
aF2.0
aF2.5
aF1.0
aa(lp15
F2.0
aF2.0
aF1.0
aF2.0
aF2.0
aF2.0
aF2.0
aF2.0
aF1.0
aF2.0
aF2.0
aF1.0
aF2.0
aF3.0
aFinf
aF2.0
aF2.0
aF1.0
aF1.0
aF2.0
aF1.0
aF1.5
aF2.0
aF1.5
aF2.0
aF2.0
aF1.0
aF1.8333333333333333
aF1.0
aF1.5
aF2.0
aF2.0
aF2.0
aF2.0
aF2.0
aF2.0
aF2.5
aF2.0
aF2.0
aF2.0
aF1.75
aF1.0
aF2.0
aF1.75
aF2.0
aF2.0
aF1.0
aF1.0
aF2.0
aF2.0
aF2.0
aF2.0
aF2.0
aF2.0
aF2.0
aF1.0
aF2.0
aF2.0
aF2.0
aF1.0
aF2.0
aF2.0
aF2.5
aa(lp16
F2.0
aF1.0
aF2.0
aF2.5
aF1.0
aF2.0
aF1.0
aF1.5
aF2.0
aF2.0
aF1.0
aF2.0
aF1.5
aF2.0
aF2.0
aFinf
aF1.5
aF1.5
aF2.0
aF1.0
aF2.0
aF1.0
aF2.0
aF1.0
aF1.0
aF1.0
aF2.0
aF1.0
aF1.5
aF1.0
aF1.0
aF1.0
aF2.0
aF1.5
aF1.5
aF2.5
aF2.0
aF1.5
aF2.0
aF2.5
aF1.25
aF1.5
aF2.5
aF1.0
aF2.0
aF0.5
aF1.0
aF1.0
aF2.0
aF1.0
aF2.0
aF1.0
aF1.5
aF1.5
aF2.0
aF2.0
aF1.0
aF2.0
aF2.0
aF2.0
aF2.0
aF2.0
aF2.0
aa(lp17
F1.5
aF0.8333333333333333
aF1.5
aF2.5
aF1.0
aF1.5
aF0.8333333333333333
aF1.0
aF2.0
aF1.5
aF1.0
aF1.5
aF1.0
aF1.0
aF2.0
aF1.5
aFinf
aF1.5
aF2.0
aF1.5
aF2.0
aF0.5
aF1.5
aF1.5
aF1.5
aF1.8333333333333333
aF2.0
aF0.8333333333333333
aF1.0
aF1.5
aF1.5
aF1.3333333333333333
aF2.0
aF1.0
aF1.0
aF2.0
aF1.0
aF1.0
aF1.5
aF2.0
aF0.5
aF1.0
aF2.0
aF0.5
aF1.5
aF1.5
aF1.5
aF1.8333333333333333
aF1.5
aF1.5
aF1.5
aF1.0
aF1.0
aF1.0
aF1.5
aF2.0
aF1.8333333333333333
aF2.0
aF1.5
aF2.0
aF1.5
aF2.0
aF1.0
aa(lp18
F2.0
aF1.5
aF1.0
aF2.0
aF1.5
aF2.0
aF1.5
aF1.5
aF1.0
aF2.0
aF1.5
aF1.0
aF2.0
aF2.833333333333333
aF1.0
aF1.5
aF1.5
aFinf
aF1.0
aF1.5
aF1.0
aF1.5
aF2.0
aF1.0
aF2.0
aF2.0
aF1.0
aF1.5
aF0.5
aF1.0
aF1.5
aF2.0
aF1.0
aF1.5
aF2.0
aF2.0
aF2.5
aF2.0
aF2.0
aF2.0
aF1.5
aF1.0
aF2.0
aF1.5
aF2.0
aF1.5
aF0.5
aF1.0
aF2.0
aF1.5
aF2.0
aF1.5
aF1.0
aF2.0
aF2.0
aF1.0
aF2.0
aF1.0
aF2.0
aF1.0
aF1.0
aF1.0
aF2.5
aa(lp19
F2.0
aF2.0
aF1.0
aF2.0
aF2.0
aF2.0
aF2.0
aF2.0
aF1.0
aF2.0
aF2.0
aF1.0
aF2.0
aF3.0
aF1.0
aF2.0
aF2.0
aF1.0
aFinf
aF2.0
aF1.0
aF1.5
aF2.0
aF1.5
aF2.0
aF2.0
aF1.0
aF1.8333333333333333
aF1.0
aF1.5
aF2.0
aF2.0
aF2.0
aF2.0
aF2.0
aF2.0
aF2.5
aF2.0
aF2.0
aF2.0
aF1.75
aF1.0
aF2.0
aF1.75
aF2.0
aF2.0
aF1.0
aF1.0
aF2.0
aF2.0
aF2.0
aF2.0
aF2.0
aF2.0
aF2.0
aF1.0
aF2.0
aF2.0
aF2.0
aF1.0
aF2.0
aF2.0
aF2.5
aa(lp20
F2.0
aF1.0
aF2.0
aF3.0
aF1.5
aF2.0
aF1.3333333333333333
aF1.5
aF2.0
aF2.0
aF1.5
aF2.0
aF1.5
aF2.0
aF2.0
aF1.0
aF1.5
aF1.5
aF2.0
aFinf
aF2.0
aF1.0
aF2.0
aF1.0
aF2.0
aF2.0
aF2.0
aF1.0
aF1.5
aF1.0
aF1.0
aF1.8333333333333333
aF2.0
aF1.5
aF1.5
aF2.5
aF2.0
aF1.5
aF2.0
aF2.5
aF1.25
aF1.5
aF2.5
aF1.0
aF2.0
aF1.0
aF1.0
aF2.0
aF2.0
aF1.0
aF2.0
aF1.5
aF1.5
aF1.5
aF2.0
aF2.0
aF2.0
aF2.0
aF2.0
aF2.0
aF2.0
aF2.0
aF2.0
aa(lp21
F2.0
aF2.0
aF1.0
aF2.0
aF2.0
aF2.0
aF2.0
aF2.0
aF1.0
aF2.0
aF2.0
aF1.0
aF2.0
aF3.0
aF1.0
aF2.0
aF2.0
aF1.0
aF1.0
aF2.0
aFinf
aF1.5
aF2.0
aF1.5
aF2.0
aF2.0
aF1.0
aF1.8333333333333333
aF1.0
aF1.5
aF2.0
aF2.0
aF2.0
aF2.0
aF2.0
aF2.0
aF2.5
aF2.0
aF2.0
aF2.0
aF1.75
aF1.0
aF2.0
aF1.75
aF2.0
aF2.0
aF1.0
aF1.0
aF2.0
aF2.0
aF2.0
aF2.0
aF2.0
aF2.0
aF2.0
aF1.0
aF2.0
aF2.0
aF2.0
aF1.0
aF2.0
aF2.0
aF2.5
aa(lp22
F1.0
aF0.3333333333333333
aF1.0
aF1.5
aF0.5
aF1.0
aF0.3333333333333333
aF0.5
aF1.5
aF1.0
aF0.5
aF1.0
aF0.5
aF1.0
aF1.5
aF1.0
aF0.5
aF1.5
aF1.5
aF1.0
aF1.5
aFinf
aF1.0
aF1.0
aF1.0
aF1.3333333333333333
aF1.5
aF0.3333333333333333
aF1.0
aF1.0
aF1.0
aF0.8333333333333333
aF1.5
aF0.5
aF0.5
aF1.5
aF1.0
aF0.5
aF1.0
aF1.5
aF0.25
aF0.5
aF1.5
aF0.25
aF1.0
aF1.0
aF1.0
aF1.3333333333333333
aF1.0
aF1.0
aF1.0
aF0.5
aF0.5
aF0.5
aF1.0
aF1.5
aF1.3333333333333333
aF1.5
aF1.0
aF1.5
aF1.0
aF1.5
aF1.0
aa(lp23
F1.0
aF1.3333333333333333
aF2.0
aF2.0
aF1.3333333333333333
aF2.0
aF1.0
aF1.0
aF2.0
aF2.0
aF1.0
aF1.0
aF1.0
aF2.0
aF2.0
aF2.0
aF1.5
aF2.0
aF2.0
aF2.0
aF2.0
aF1.0
aFinf
aF2.0
aF2.0
aF2.0
aF2.0
aF1.3333333333333333
aF2.0
aF2.0
aF2.0
aF1.5
aF2.0
aF1.5
aF1.5
aF2.0
aF2.0
aF1.0
aF2.0
aF2.0
aF1.0
aF1.5
aF2.0
aF1.25
aF1.0
aF2.0
aF2.0
aF2.0
aF1.0
aF2.0
aF2.0
aF1.3333333333333333
aF1.0
aF1.5
aF2.0
aF2.0
aF2.0
aF2.0
aF1.0
aF2.0
aF1.5
aF2.0
aF2.0
aa(lp24
F2.0
aF1.0
aF1.5
aF2.0
aF1.5
aF2.0
aF1.3333333333333333
aF1.5
aF1.5
aF2.0
aF1.5
aF1.5
aF1.5
aF2.0
aF1.5
aF1.0
aF1.5
aF1.0
aF1.5
aF1.0
aF1.5
aF1.0
aF2.0
aFinf
aF2.0
aF2.0
aF1.5
aF1.0
aF1.0
aF0.5
aF1.0
aF1.8333333333333333
aF1.0
aF1.5
aF1.5
aF2.0
aF2.0
aF1.5
aF2.0
aF2.0
aF1.25
aF1.5
aF2.0
aF1.0
aF2.0
aF1.0
aF0.5
aF1.5
aF2.0
aF1.0
aF2.0
aF1.5
aF1.0
aF1.5
aF2.0
aF1.5
aF2.0
aF1.0
aF2.0
aF1.5
aF1.0
aF1.0
aF2.0
aa(lp25
F2.0
aF1.3333333333333333
aF1.0
aF2.5
aF1.0
aF1.0
aF1.0
aF1.5
aF2.0
aF1.0
aF1.0
aF2.0
aF1.0
aF2.0
aF2.0
aF1.0
aF1.5
aF2.0
aF2.0
aF2.0
aF2.0
aF1.0
aF2.0
aF2.0
aFinf
aF1.0
aF2.0
aF1.0
aF2.0
aF2.0
aF2.0
aF1.0
aF2.5
aF1.0
aF1.5
aF2.5
aF2.0
aF1.5
aF1.0
aF2.5
aF1.25
aF1.0
aF2.5
aF1.25
aF2.0
aF1.0
aF2.0
aF1.0
aF2.0
aF2.0
aF1.0
aF1.0
aF1.5
aF1.0
aF2.0
aF2.0
aF1.0
aF2.5
aF2.0
aF2.0
aF2.0
aF2.5
aF2.0
aa(lp26
F2.0
aF1.5
aF2.0
aF2.5
aF1.0
aF2.0
aF1.0
aF1.5
aF2.0
aF2.0
aF1.0
aF2.0
aF1.8333333333333333
aF2.333333333333333
aF2.0
aF1.0
aF1.8333333333333333
aF2.0
aF2.0
aF2.0
aF2.0
aF1.3333333333333333
aF2.0
aF2.0
aF1.0
aFinf
aF2.0
aF1.6666666666666665
aF2.0
aF2.0
aF2.0
aF1.0
aF2.5
aF1.8333333333333333
aF1.8333333333333333
aF2.5
aF2.333333333333333
aF1.8333333333333333
aF2.0
aF2.5
aF1.3333333333333333
aF1.8333333333333333
aF2.5
aF1.5
aF2.0
aF1.0
aF2.0
aF1.0
aF2.0
aF2.0
aF2.0
aF1.0
aF1.5
aF1.8333333333333333
aF2.0
aF2.0
aF1.0
aF2.5
aF2.0
aF2.0
aF2.0
aF2.5
aF2.333333333333333
aa(lp27
F2.0
aF2.0
aF1.0
aF2.0
aF2.0
aF2.0
aF2.0
aF2.0
aF1.0
aF2.0
aF2.0
aF1.0
aF2.0
aF3.0
aF1.0
aF2.0
aF2.0
aF1.0
aF1.0
aF2.0
aF1.0
aF1.5
aF2.0
aF1.5
aF2.0
aF2.0
aFinf
aF1.8333333333333333
aF1.0
aF1.5
aF2.0
aF2.0
aF2.0
aF2.0
aF2.0
aF2.0
aF2.5
aF2.0
aF2.0
aF2.0
aF1.75
aF1.0
aF2.0
aF1.75
aF2.0
aF2.0
aF1.0
aF1.0
aF2.0
aF2.0
aF2.0
aF2.0
aF2.0
aF2.0
aF2.0
aF1.0
aF2.0
aF2.0
aF2.0
aF1.0
aF2.0
aF2.0
aF2.5
aa(lp28
F1.3333333333333333
aF0.5
aF1.0
aF1.8333333333333333
aF0.8333333333333333
aF1.0
aF0.6666666666666666
aF0.8333333333333333
aF1.8333333333333333
aF1.0
aF0.8333333333333333
aF1.3333333333333333
aF0.8333333333333333
aF1.3333333333333333
aF1.8333333333333333
aF1.0
aF0.8333333333333333
aF1.5
aF1.8333333333333333
aF1.0
aF1.8333333333333333
aF0.3333333333333333
aF1.3333333333333333
aF1.0
aF1.0
aF1.6666666666666665
aF1.8333333333333333
aFinf
aF1.0
aF1.0
aF1.0
aF1.1666666666666665
aF1.8333333333333333
aF0.5
aF0.8333333333333333
aF1.8333333333333333
aF1.3333333333333333
aF0.8333333333333333
aF1.0
aF1.8333333333333333
aF0.5833333333333333
aF0.8333333333333333
aF1.8333333333333333
aF0.5
aF1.3333333333333333
aF1.0
aF1.0
aF1.6666666666666665
aF1.3333333333333333
aF1.0
aF1.0
aF0.8333333333333333
aF0.8333333333333333
aF0.8333333333333333
aF1.3333333333333333
aF1.8333333333333333
aF1.6666666666666665
aF1.8333333333333333
aF1.3333333333333333
aF1.8333333333333333
aF1.3333333333333333
aF1.8333333333333333
aF1.3333333333333333
aa(lp29
F2.0
aF1.0
aF1.0
aF2.0
aF1.0
aF2.0
aF1.0
aF1.5
aF1.0
aF2.0
aF1.0
aF1.0
aF1.5
aF2.0
aF1.0
aF1.5
aF1.0
aF0.5
aF1.0
aF1.5
aF1.0
aF1.0
aF2.0
aF1.0
aF2.0
aF2.0
aF1.0
aF1.0
aFinf
aF1.0
aF1.5
aF1.5
aF1.0
aF1.0
aF1.5
aF2.0
aF2.0
aF1.5
aF2.0
aF2.0
aF1.0
aF1.0
aF2.0
aF1.0
aF2.0
aF1.5
aF0.5
aF1.0
aF2.0
aF1.5
aF2.0
aF1.0
aF1.0
aF1.5
aF2.0
aF1.0
aF2.0
aF1.0
aF2.0
aF1.0
aF1.0
aF1.0
aF2.0
aa(lp30
F2.0
aF1.0
aF1.5
aF2.0
aF1.5
aF2.0
aF1.3333333333333333
aF1.5
aF1.5
aF2.0
aF1.5
aF1.5
aF1.5
aF2.0
aF1.5
aF1.0
aF1.5
aF1.0
aF1.5
aF1.0
aF1.5
aF1.0
aF2.0
aF0.5
aF2.0
aF2.0
aF1.5
aF1.0
aF1.0
aFinf
aF1.0
aF1.8333333333333333
aF1.0
aF1.5
aF1.5
aF2.0
aF2.0
aF1.5
aF2.0
aF2.0
aF1.25
aF1.5
aF2.0
aF1.0
aF2.0
aF1.0
aF0.5
aF1.5
aF2.0
aF1.0
aF2.0
aF1.5
aF1.0
aF1.5
aF2.0
aF1.5
aF2.0
aF1.0
aF2.0
aF1.5
aF1.0
aF1.0
aF2.0
aa(lp31
F2.0
aF1.0
aF2.0
aF2.5
aF1.5
aF2.0
aF1.3333333333333333
aF1.5
aF2.0
aF2.0
aF1.5
aF2.0
aF1.5
aF2.0
aF2.0
aF1.0
aF1.5
aF1.5
aF2.0
aF1.0
aF2.0
aF1.0
aF2.0
aF1.0
aF2.0
aF2.0
aF2.0
aF1.0
aF1.5
aF1.0
aFinf
aF1.8333333333333333
aF2.0
aF1.5
aF1.5
aF2.5
aF2.0
aF1.5
aF2.0
aF2.5
aF1.25
aF1.5
aF2.5
aF1.0
aF2.0
aF1.0
aF1.0
aF2.0
aF2.0
aF1.0
aF2.0
aF1.5
aF1.5
aF1.5
aF2.0
aF2.0
aF2.0
aF2.0
aF2.0
aF2.0
aF2.0
aF2.0
aF2.0
aa(lp32
F1.5
aF1.0
aF1.5
aF2.0
aF0.5
aF1.8333333333333333
aF0.5
aF1.0
aF2.0
aF1.8333333333333333
aF0.8333333333333333
aF1.5
aF1.3333333333333333
aF1.8333333333333333
aF2.0
aF1.0
aF1.3333333333333333
aF2.0
aF2.0
aF1.8333333333333333
aF2.0
aF0.8333333333333333
aF1.5
aF1.8333333333333333
aF1.0
aF1.0
aF2.0
aF1.1666666666666665
aF1.5
aF1.8333333333333333
aF1.8333333333333333
aFinf
aF2.0
aF1.3333333333333333
aF1.0
aF2.0
aF1.8333333333333333
aF1.3333333333333333
aF1.8333333333333333
aF2.0
aF0.8333333333333333
aF1.0
aF2.0
aF1.0
aF1.5
aF1.0
aF1.8333333333333333
aF1.0
aF1.5
aF1.8333333333333333
aF1.8333333333333333
aF0.5
aF1.0
aF1.3333333333333333
aF1.0
aF2.0
aF1.0
aF2.0
aF1.5
aF2.0
aF1.0
aF2.0
aF1.8333333333333333
aa(lp33
F2.0
aF2.0
aF2.0
aF2.0
aF2.0
aF3.0
aF1.5
aF1.5
aF2.0
aF2.833333333333333
aF1.8333333333333333
aF2.0
aF2.0
aF2.833333333333333
aF2.0
aF2.0
aF2.0
aF1.0
aF2.0
aF2.0
aF2.0
aF1.5
aF2.0
aF1.0
aF2.5
aF2.5
aF2.0
aF1.8333333333333333
aF1.0
aF1.0
aF2.0
aF2.0
aFinf
aF2.0
aF2.0
aF2.0
aF2.5
aF2.0
aF2.5
aF2.0
aF1.5
aF2.0
aF2.0
aF1.75
aF2.0
aF2.0
aF1.0
aF2.0
aF2.0
aF2.0
aF2.5
aF1.8333333333333333
aF1.0
aF2.0
aF2.0
aF2.0
aF2.5
aF1.0
aF2.0
aF2.0
aF1.0
aF1.0
aF2.5
aa(lp34
F1.5
aF0.8333333333333333
aF1.0
aF2.0
aF1.0
aF1.0
aF0.8333333333333333
aF1.0
aF2.0
aF1.0
aF1.0
aF1.5
aF1.0
aF1.5
aF2.0
aF1.5
aF1.0
aF1.5
aF2.0
aF1.5
aF2.0
aF0.5
aF1.5
aF1.5
aF1.0
aF1.8333333333333333
aF2.0
aF0.5
aF1.0
aF1.5
aF1.5
aF1.3333333333333333
aF2.0
aFinf
aF1.0
aF2.0
aF1.5
aF1.0
aF1.0
aF2.0
aF0.75
aF1.0
aF2.0
aF0.75
aF1.5
aF1.5
aF1.5
aF1.8333333333333333
aF1.5
aF1.5
aF1.0
aF1.0
aF1.0
aF1.0
aF1.5
aF2.0
aF1.8333333333333333
aF2.0
aF1.5
aF2.0
aF1.5
aF2.0
aF1.5
aa(lp35
F1.5
aF0.8333333333333333
aF1.5
aF2.0
aF1.0
aF1.5
aF0.8333333333333333
aF1.0
aF2.0
aF1.5
aF1.0
aF1.5
aF1.0
aF1.0
aF2.0
aF1.5
aF1.0
aF2.0
aF2.0
aF1.5
aF2.0
aF0.5
aF1.5
aF1.5
aF1.5
aF1.8333333333333333
aF2.0
aF0.8333333333333333
aF1.5
aF1.5
aF1.5
aF1.0
aF2.0
aF1.0
aFinf
aF2.0
aF1.0
aF1.0
aF1.5
aF2.0
aF0.5
aF1.0
aF2.0
aF0.5
aF1.5
aF1.5
aF1.5
aF1.8333333333333333
aF1.5
aF1.5
aF1.5
aF1.0
aF1.0
aF1.0
aF1.0
aF2.0
aF1.8333333333333333
aF2.0
aF1.5
aF2.0
aF1.0
aF2.0
aF1.0
aa(lp36
F1.0
aF1.8333333333333333
aF2.0
aF1.0
aF1.8333333333333333
aF2.5
aF1.5
aF1.0
aF2.0
aF2.5
aF1.8333333333333333
aF2.0
aF2.0
aF2.5
aF2.0
aF2.5
aF2.0
aF2.0
aF2.0
aF2.5
aF2.0
aF1.5
aF2.0
aF2.0
aF2.5
aF2.5
aF2.0
aF1.8333333333333333
aF2.0
aF2.0
aF2.5
aF2.0
aF2.0
aF2.0
aF2.0
aFinf
aF2.5
aF2.0
aF2.5
aF1.0
aF1.5
aF2.0
aF1.0
aF1.75
aF1.0
aF2.5
aF2.0
aF2.0
aF1.0
aF2.5
aF2.5
aF1.8333333333333333
aF1.5
aF2.0
aF2.0
aF1.0
aF2.5
aF1.0
aF1.0
aF2.0
aF2.0
aF2.0
aF2.5
aa(lp37
F2.0
aF1.3333333333333333
aF2.0
aF2.5
aF1.5
aF2.0
aF1.3333333333333333
aF1.5
aF2.5
aF2.0
aF1.5
aF2.0
aF1.5
aF1.0
aF2.5
aF2.0
aF1.0
aF2.5
aF2.5
aF2.0
aF2.5
aF1.0
aF2.0
aF2.0
aF2.0
aF2.333333333333333
aF2.5
aF1.3333333333333333
aF2.0
aF2.0
aF2.0
aF1.8333333333333333
aF2.5
aF1.5
aF1.0
aF2.5
aFinf
aF1.0
aF2.0
aF2.5
aF1.0
aF1.5
aF2.5
aF1.0
aF2.0
aF2.0
aF2.0
aF2.333333333333333
aF2.0
aF2.0
aF2.0
aF1.5
aF1.5
aF1.0
aF2.0
aF2.5
aF2.333333333333333
aF2.5
aF2.0
aF2.5
aF2.0
aF2.5
aF1.0
aa(lp38
F1.0
aF0.8333333333333333
aF1.5
aF2.0
aF1.0
aF1.5
aF0.8333333333333333
aF1.0
aF2.0
aF1.5
aF1.0
aF1.0
aF1.0
aF1.0
aF2.0
aF1.5
aF1.0
aF2.0
aF2.0
aF1.5
aF2.0
aF0.5
aF1.0
aF1.5
aF1.5
aF1.8333333333333333
aF2.0
aF0.8333333333333333
aF1.5
aF1.5
aF1.5
aF1.3333333333333333
aF2.0
aF1.0
aF1.0
aF2.0
aF1.0
aFinf
aF1.5
aF2.0
aF0.5
aF1.0
aF2.0
aF0.75
aF1.0
aF1.5
aF1.5
aF1.8333333333333333
aF1.0
aF1.5
aF1.5
aF1.0
aF1.0
aF1.0
aF1.5
aF2.0
aF1.8333333333333333
aF2.0
aF1.0
aF2.0
aF1.5
aF2.0
aF1.0
aa(lp39
F2.0
aF1.3333333333333333
aF1.0
aF2.5
aF1.5
aF1.0
aF1.3333333333333333
aF1.5
aF2.0
aF1.0
aF1.5
aF2.0
aF1.0
aF2.0
aF2.0
aF2.0
aF1.5
aF2.0
aF2.0
aF2.0
aF2.0
aF1.0
aF2.0
aF2.0
aF1.0
aF2.0
aF2.0
aF1.0
aF2.0
aF2.0
aF2.0
aF1.8333333333333333
aF2.5
aF1.0
aF1.5
aF2.5
aF2.0
aF1.5
aFinf
aF2.5
aF1.25
aF1.0
aF2.5
aF1.25
aF2.0
aF2.0
aF2.0
aF2.0
aF2.0
aF2.0
aF1.0
aF1.5
aF1.5
aF1.0
aF2.0
aF2.0
aF2.0
aF2.5
aF2.0
aF2.0
aF2.0
aF2.5
aF2.0
aa(lp40
F1.0
aF1.8333333333333333
aF2.0
aF1.0
aF1.8333333333333333
aF2.5
aF1.5
aF1.0
aF2.0
aF2.5
aF1.8333333333333333
aF2.0
aF2.0
aF2.5
aF2.0
aF2.5
aF2.0
aF2.0
aF2.0
aF2.5
aF2.0
aF1.5
aF2.0
aF2.0
aF2.5
aF2.5
aF2.0
aF1.8333333333333333
aF2.0
aF2.0
aF2.5
aF2.0
aF2.0
aF2.0
aF2.0
aF1.0
aF2.5
aF2.0
aF2.5
aFinf
aF1.5
aF2.0
aF1.0
aF1.75
aF1.0
aF2.5
aF2.0
aF2.0
aF1.0
aF2.5
aF2.5
aF1.8333333333333333
aF1.5
aF2.0
aF2.0
aF1.0
aF2.5
aF1.0
aF1.0
aF2.0
aF2.0
aF2.0
aF2.5
aa(lp41
F1.0
aF0.5
aF1.25
aF1.5
aF0.5
aF1.25
aF0.3333333333333333
aF0.5
aF1.75
aF1.25
aF0.5
aF1.0
aF0.75
aF1.0
aF1.75
aF1.25
aF0.5
aF1.5
aF1.75
aF1.25
aF1.75
aF0.25
aF1.0
aF1.25
aF1.25
aF1.3333333333333333
aF1.75
aF0.5833333333333333
aF1.0
aF1.25
aF1.25
aF0.8333333333333333
aF1.5
aF0.75
aF0.5
aF1.5
aF1.0
aF0.5
aF1.25
aF1.5
aFinf
aF0.75
aF1.5
aF0.3333333333333333
aF1.0
aF1.25
aF1.25
aF1.3333333333333333
aF1.0
aF1.25
aF1.25
aF0.5
aF0.5
aF0.75
aF1.0
aF1.5
aF1.3333333333333333
aF1.5
aF1.0
aF1.75
aF1.0
aF1.5
aF1.0
aa(lp42
F1.5
aF0.8333333333333333
aF0.5
aF2.0
aF1.0
aF1.0
aF0.8333333333333333
aF1.0
aF1.0
aF1.0
aF1.0
aF1.0
aF1.0
aF1.5
aF1.0
aF1.5
aF1.0
aF1.0
aF1.0
aF1.5
aF1.0
aF0.5
aF1.5
aF1.5
aF1.0
aF1.8333333333333333
aF1.0
aF0.8333333333333333
aF1.0
aF1.5
aF1.5
aF1.0
aF2.0
aF1.0
aF1.0
aF2.0
aF1.5
aF1.0
aF1.0
aF2.0
aF0.75
aFinf
aF2.0
aF0.75
aF1.5
aF1.5
aF1.0
aF1.0
aF1.5
aF1.5
aF1.0
aF1.0
aF1.0
aF1.0
aF1.0
aF1.0
aF1.8333333333333333
aF2.0
aF1.5
aF1.0
aF1.0
aF2.0
aF1.5
aa(lp43
F1.0
aF1.8333333333333333
aF2.0
aF1.0
aF1.8333333333333333
aF2.5
aF1.5
aF1.0
aF2.0
aF2.5
aF1.8333333333333333
aF2.0
aF2.0
aF2.5
aF2.0
aF2.5
aF2.0
aF2.0
aF2.0
aF2.5
aF2.0
aF1.5
aF2.0
aF2.0
aF2.5
aF2.5
aF2.0
aF1.8333333333333333
aF2.0
aF2.0
aF2.5
aF2.0
aF2.0
aF2.0
aF2.0
aF1.0
aF2.5
aF2.0
aF2.5
aF1.0
aF1.5
aF2.0
aFinf
aF1.75
aF1.0
aF2.5
aF2.0
aF2.0
aF1.0
aF2.5
aF2.5
aF1.8333333333333333
aF1.5
aF2.0
aF2.0
aF1.0
aF2.5
aF1.0
aF1.0
aF2.0
aF2.0
aF2.0
aF2.5
aa(lp44
F1.25
aF0.3333333333333333
aF1.25
aF1.75
aF0.5
aF1.25
aF0.5
aF0.75
aF1.75
aF1.25
aF0.75
aF1.25
aF0.75
aF1.0
aF1.75
aF1.0
aF0.5
aF1.5
aF1.75
aF1.0
aF1.75
aF0.25
aF1.25
aF1.0
aF1.25
aF1.5
aF1.75
aF0.5
aF1.0
aF1.0
aF1.0
aF1.0
aF1.75
aF0.75
aF0.5
aF1.75
aF1.0
aF0.75
aF1.25
aF1.75
aF0.3333333333333333
aF0.75
aF1.75
aFinf
aF1.25
aF1.0
aF1.0
aF1.5
aF1.25
aF1.0
aF1.25
aF0.5
aF0.75
aF0.75
aF1.0
aF1.75
aF1.5
aF1.75
aF1.25
aF1.75
aF1.0
aF1.75
aF1.0
aa(lp45
F0.5
aF1.3333333333333333
aF2.0
aF1.0
aF1.3333333333333333
aF2.0
aF1.0
aF0.5
aF2.0
aF2.0
aF1.0
aF1.0
aF1.0
aF2.0
aF2.0
aF2.0
aF1.5
aF2.0
aF2.0
aF2.0
aF2.0
aF1.0
aF1.0
aF2.0
aF2.0
aF2.0
aF2.0
aF1.3333333333333333
aF2.0
aF2.0
aF2.0
aF1.5
aF2.0
aF1.5
aF1.5
aF1.0
aF2.0
aF1.0
aF2.0
aF1.0
aF1.0
aF1.5
aF1.0
aF1.25
aFinf
aF2.0
aF2.0
aF2.0
aF0.5
aF2.0
aF2.0
aF1.3333333333333333
aF1.0
aF1.5
aF1.5
aF1.0
aF2.0
aF1.0
aF0.5
aF2.0
aF1.5
aF2.0
aF2.0
aa(lp46
F2.0
aF1.0
aF2.0
aF2.5
aF1.0
aF2.0
aF1.0
aF1.5
aF2.0
aF2.0
aF1.0
aF2.0
aF1.5
aF2.0
aF2.0
aF0.5
aF1.5
aF1.5
aF2.0
aF1.0
aF2.0
aF1.0
aF2.0
aF1.0
aF1.0
aF1.0
aF2.0
aF1.0
aF1.5
aF1.0
aF1.0
aF1.0
aF2.0
aF1.5
aF1.5
aF2.5
aF2.0
aF1.5
aF2.0
aF2.5
aF1.25
aF1.5
aF2.5
aF1.0
aF2.0
aFinf
aF1.0
aF1.0
aF2.0
aF1.0
aF2.0
aF1.0
aF1.5
aF1.5
aF2.0
aF2.0
aF1.0
aF2.0
aF2.0
aF2.0
aF2.0
aF2.0
aF2.0
aa(lp47
F2.0
aF1.0
aF1.0
aF2.0
aF1.5
aF2.0
aF1.3333333333333333
aF1.5
aF1.0
aF2.0
aF1.5
aF1.0
aF1.5
aF2.0
aF1.0
aF1.0
aF1.5
aF0.5
aF1.0
aF1.0
aF1.0
aF1.0
aF2.0
aF0.5
aF2.0
aF2.0
aF1.0
aF1.0
aF0.5
aF0.5
aF1.0
aF1.8333333333333333
aF1.0
aF1.5
aF1.5
aF2.0
aF2.0
aF1.5
aF2.0
aF2.0
aF1.25
aF1.0
aF2.0
aF1.0
aF2.0
aF1.0
aFinf
aF1.0
aF2.0
aF1.0
aF2.0
aF1.5
aF1.0
aF1.5
aF2.0
aF1.0
aF2.0
aF1.0
aF2.0
aF1.0
aF1.0
aF1.0
aF2.0
aa(lp48
F2.0
aF1.5
aF1.0
aF2.0
aF1.0
aF2.0
aF1.0
aF1.5
aF1.0
aF2.0
aF1.0
aF1.0
aF1.8333333333333333
aF2.333333333333333
aF1.0
aF1.0
aF1.8333333333333333
aF1.0
aF1.0
aF2.0
aF1.0
aF1.3333333333333333
aF2.0
aF1.5
aF1.0
aF1.0
aF1.0
aF1.6666666666666665
aF1.0
aF1.5
aF2.0
aF1.0
aF2.0
aF1.8333333333333333
aF1.8333333333333333
aF2.0
aF2.333333333333333
aF1.8333333333333333
aF2.0
aF2.0
aF1.3333333333333333
aF1.0
aF2.0
aF1.5
aF2.0
aF1.0
aF1.0
aFinf
aF2.0
aF2.0
aF2.0
aF1.0
aF1.5
aF1.8333333333333333
aF2.0
aF1.0
aF1.0
aF2.0
aF2.0
aF1.0
aF2.0
aF2.0
aF2.333333333333333
aa(lp49
F0.5
aF1.3333333333333333
aF2.0
aF1.0
aF1.3333333333333333
aF2.0
aF1.0
aF0.5
aF2.0
aF2.0
aF1.0
aF1.0
aF1.0
aF2.0
aF2.0
aF2.0
aF1.5
aF2.0
aF2.0
aF2.0
aF2.0
aF1.0
aF1.0
aF2.0
aF2.0
aF2.0
aF2.0
aF1.3333333333333333
aF2.0
aF2.0
aF2.0
aF1.5
aF2.0
aF1.5
aF1.5
aF1.0
aF2.0
aF1.0
aF2.0
aF1.0
aF1.0
aF1.5
aF1.0
aF1.25
aF0.5
aF2.0
aF2.0
aF2.0
aFinf
aF2.0
aF2.0
aF1.3333333333333333
aF1.0
aF1.5
aF1.5
aF1.0
aF2.0
aF1.0
aF0.5
aF2.0
aF1.5
aF2.0
aF2.0
aa(lp50
F2.0
aF1.0
aF2.0
aF2.5
aF1.5
aF2.0
aF1.3333333333333333
aF1.5
aF2.0
aF2.0
aF1.5
aF2.0
aF1.5
aF2.0
aF2.0
aF1.0
aF1.5
aF1.5
aF2.0
aF1.0
aF2.0
aF1.0
aF2.0
aF1.0
aF2.0
aF2.0
aF2.0
aF1.0
aF1.5
aF1.0
aF1.0
aF1.8333333333333333
aF2.0
aF1.5
aF1.5
aF2.5
aF2.0
aF1.5
aF2.0
aF2.5
aF1.25
aF1.5
aF2.5
aF1.0
aF2.0
aF1.0
aF1.0
aF2.0
aF2.0
aFinf
aF2.0
aF1.5
aF1.5
aF1.5
aF2.0
aF2.0
aF2.0
aF2.0
aF2.0
aF2.0
aF2.0
aF2.0
aF2.0
aa(lp51
F2.0
aF1.3333333333333333
aF1.0
aF2.5
aF1.5
aF1.0
aF1.3333333333333333
aF1.5
aF2.0
aF1.0
aF1.5
aF2.0
aF1.0
aF2.0
aF2.0
aF2.0
aF1.5
aF2.0
aF2.0
aF2.0
aF2.0
aF1.0
aF2.0
aF2.0
aF1.0
aF2.0
aF2.0
aF1.0
aF2.0
aF2.0
aF2.0
aF1.8333333333333333
aF2.5
aF1.0
aF1.5
aF2.5
aF2.0
aF1.5
aF1.0
aF2.5
aF1.25
aF1.0
aF2.5
aF1.25
aF2.0
aF2.0
aF2.0
aF2.0
aF2.0
aF2.0
aFinf
aF1.5
aF1.5
aF1.0
aF2.0
aF2.0
aF2.0
aF2.5
aF2.0
aF2.0
aF2.0
aF2.5
aF2.0
aa(lp52
F1.3333333333333333
aF0.5
aF1.5
aF1.8333333333333333
aF0.3333333333333333
aF1.5
aF0.3333333333333333
aF0.8333333333333333
aF2.0
aF1.5
aF0.5
aF1.3333333333333333
aF1.0
aF1.5
aF2.0
aF1.0
aF1.0
aF1.5
aF2.0
aF1.5
aF2.0
aF0.5
aF1.3333333333333333
aF1.5
aF1.0
aF1.0
aF2.0
aF0.8333333333333333
aF1.0
aF1.5
aF1.5
aF0.5
aF1.8333333333333333
aF1.0
aF1.0
aF1.8333333333333333
aF1.5
aF1.0
aF1.5
aF1.8333333333333333
aF0.5
aF1.0
aF1.8333333333333333
aF0.5
aF1.3333333333333333
aF1.0
aF1.5
aF1.0
aF1.3333333333333333
aF1.5
aF1.5
aFinf
aF0.8333333333333333
aF1.0
aF1.0
aF1.8333333333333333
aF1.0
aF1.8333333333333333
aF1.3333333333333333
aF2.0
aF1.0
aF1.8333333333333333
aF1.5
aa(lp53
F1.0
aF0.8333333333333333
aF1.5
aF1.5
aF0.8333333333333333
aF1.5
aF0.5
aF0.5
aF2.0
aF1.5
aF0.8333333333333333
aF1.0
aF1.0
aF1.5
aF2.0
aF1.5
aF1.0
aF1.0
aF2.0
aF1.5
aF2.0
aF0.5
aF1.0
aF1.0
aF1.5
aF1.5
aF2.0
aF0.8333333333333333
aF1.0
aF1.0
aF1.5
aF1.0
aF1.0
aF1.0
aF1.0
aF1.5
aF1.5
aF1.0
aF1.5
aF1.5
aF0.5
aF1.0
aF1.5
aF0.75
aF1.0
aF1.5
aF1.0
aF1.5
aF1.0
aF1.5
aF1.5
aF0.8333333333333333
aFinf
aF1.0
aF1.0
aF1.5
aF1.5
aF1.0
aF1.0
aF2.0
aF0.5
aF1.0
aF1.5
aa(lp54
F1.5
aF0.8333333333333333
aF1.0
aF2.0
aF1.0
aF1.0
aF0.8333333333333333
aF1.0
aF2.0
aF1.0
aF1.0
aF1.5
aF1.0
aF1.0
aF2.0
aF1.5
aF1.0
aF2.0
aF2.0
aF1.5
aF2.0
aF0.5
aF1.5
aF1.5
aF1.0
aF1.8333333333333333
aF2.0
aF0.8333333333333333
aF1.5
aF1.5
aF1.5
aF1.3333333333333333
aF2.0
aF1.0
aF1.0
aF2.0
aF1.0
aF1.0
aF1.0
aF2.0
aF0.75
aF1.0
aF2.0
aF0.75
aF1.5
aF1.5
aF1.5
aF1.8333333333333333
aF1.5
aF1.5
aF1.0
aF1.0
aF1.0
aFinf
aF1.5
aF2.0
aF1.8333333333333333
aF2.0
aF1.5
aF2.0
aF1.5
aF2.0
aF1.0
aa(lp55
F1.5
aF1.0
aF1.5
aF2.0
aF1.0
aF2.0
aF1.0
aF1.0
aF2.0
aF2.0
aF1.3333333333333333
aF2.0
aF1.5
aF2.0
aF2.0
aF2.0
aF1.5
aF2.0
aF2.0
aF2.0
aF2.0
aF1.0
aF2.0
aF2.0
aF2.0
aF2.0
aF2.0
aF1.3333333333333333
aF2.0
aF2.0
aF2.0
aF1.0
aF2.0
aF1.5
aF1.0
aF2.0
aF2.0
aF1.5
aF2.0
aF2.0
aF1.0
aF1.0
aF2.0
aF1.0
aF1.5
aF2.0
aF2.0
aF2.0
aF1.5
aF2.0
aF2.0
aF1.0
aF1.0
aF1.5
aFinf
aF2.0
aF2.0
aF2.0
aF1.5
aF2.0
aF1.0
aF2.0
aF2.0
aa(lp56
F1.0
aF1.8333333333333333
aF1.0
aF1.0
aF1.8333333333333333
aF2.0
aF1.5
aF1.0
aF1.0
aF2.0
aF1.8333333333333333
aF1.0
aF2.0
aF2.5
aF1.0
aF2.0
aF2.0
aF1.0
aF1.0
aF2.0
aF1.0
aF1.5
aF2.0
aF1.5
aF2.0
aF2.0
aF1.0
aF1.8333333333333333
aF1.0
aF1.5
aF2.0
aF2.0
aF2.0
aF2.0
aF2.0
aF1.0
aF2.5
aF2.0
aF2.0
aF1.0
aF1.5
aF1.0
aF1.0
aF1.75
aF1.0
aF2.0
aF1.0
aF1.0
aF1.0
aF2.0
aF2.0
aF1.8333333333333333
aF1.5
aF2.0
aF2.0
aFinf
aF2.0
aF1.0
aF1.0
aF1.0
aF2.0
aF2.0
aF2.5
aa(lp57
F2.0
aF1.5
aF2.0
aF2.5
aF1.0
aF2.0
aF1.0
aF1.5
aF2.0
aF2.0
aF1.0
aF2.0
aF1.8333333333333333
aF2.333333333333333
aF2.0
aF1.0
aF1.8333333333333333
aF2.0
aF2.0
aF2.0
aF2.0
aF1.3333333333333333
aF2.0
aF2.0
aF1.0
aF1.0
aF2.0
aF1.6666666666666665
aF2.0
aF2.0
aF2.0
aF1.0
aF2.5
aF1.8333333333333333
aF1.8333333333333333
aF2.5
aF2.333333333333333
aF1.8333333333333333
aF2.0
aF2.5
aF1.3333333333333333
aF1.8333333333333333
aF2.5
aF1.5
aF2.0
aF1.0
aF2.0
aF1.0
aF2.0
aF2.0
aF2.0
aF1.0
aF1.5
aF1.8333333333333333
aF2.0
aF2.0
aFinf
aF2.5
aF2.0
aF2.0
aF2.0
aF2.5
aF2.333333333333333
aa(lp58
F1.0
aF1.8333333333333333
aF2.0
aF1.0
aF1.8333333333333333
aF2.5
aF1.5
aF1.0
aF2.0
aF2.5
aF1.8333333333333333
aF2.0
aF2.0
aF2.5
aF2.0
aF2.0
aF2.0
aF1.0
aF2.0
aF2.0
aF2.0
aF1.5
aF2.0
aF1.0
aF2.5
aF2.5
aF2.0
aF1.8333333333333333
aF1.0
aF1.0
aF2.0
aF2.0
aF1.0
aF2.0
aF2.0
aF1.0
aF2.5
aF2.0
aF2.5
aF1.0
aF1.5
aF2.0
aF1.0
aF1.75
aF1.0
aF2.0
aF1.0
aF2.0
aF1.0
aF2.0
aF2.5
aF1.8333333333333333
aF1.0
aF2.0
aF2.0
aF1.0
aF2.5
aFinf
aF1.0
aF2.0
aF1.0
aF1.0
aF2.5
aa(lp59
F0.5
aF1.3333333333333333
aF2.0
aF1.0
aF1.3333333333333333
aF2.0
aF1.0
aF0.5
aF2.0
aF2.0
aF1.0
aF1.0
aF1.0
aF2.0
aF2.0
aF2.0
aF1.5
aF2.0
aF2.0
aF2.0
aF2.0
aF1.0
aF1.0
aF2.0
aF2.0
aF2.0
aF2.0
aF1.3333333333333333
aF2.0
aF2.0
aF2.0
aF1.5
aF2.0
aF1.5
aF1.5
aF1.0
aF2.0
aF1.0
aF2.0
aF1.0
aF1.0
aF1.5
aF1.0
aF1.25
aF0.5
aF2.0
aF2.0
aF2.0
aF0.5
aF2.0
aF2.0
aF1.3333333333333333
aF1.0
aF1.5
aF1.5
aF1.0
aF2.0
aF1.0
aFinf
aF2.0
aF1.5
aF2.0
aF2.0
aa(lp60
F2.0
aF1.8333333333333333
aF1.0
aF2.0
aF2.0
aF2.0
aF1.8333333333333333
aF2.0
aF1.0
aF2.0
aF2.0
aF1.0
aF2.0
aF2.5
aF1.0
aF2.0
aF2.0
aF1.0
aF1.0
aF2.0
aF1.0
aF1.5
aF2.0
aF1.5
aF2.0
aF2.0
aF1.0
aF1.8333333333333333
aF1.0
aF1.5
aF2.0
aF2.0
aF2.0
aF2.0
aF2.0
aF2.0
aF2.5
aF2.0
aF2.0
aF2.0
aF1.75
aF1.0
aF2.0
aF1.75
aF2.0
aF2.0
aF1.0
aF1.0
aF2.0
aF2.0
aF2.0
aF2.0
aF2.0
aF2.0
aF2.0
aF1.0
aF2.0
aF2.0
aF2.0
aFinf
aF2.0
aF2.0
aF2.5
aa(lp61
F1.5
aF1.0
aF1.5
aF2.0
aF1.0
aF2.0
aF1.0
aF1.0
aF2.0
aF2.0
aF1.3333333333333333
aF1.5
aF1.5
aF2.0
aF2.0
aF2.0
aF1.5
aF1.0
aF2.0
aF2.0
aF2.0
aF1.0
aF1.5
aF1.0
aF2.0
aF2.0
aF2.0
aF1.3333333333333333
aF1.0
aF1.0
aF2.0
aF1.0
aF1.0
aF1.5
aF1.0
aF2.0
aF2.0
aF1.5
aF2.0
aF2.0
aF1.0
aF1.0
aF2.0
aF1.0
aF1.5
aF2.0
aF1.0
aF2.0
aF1.5
aF2.0
aF2.0
aF1.0
aF0.5
aF1.5
aF1.0
aF2.0
aF2.0
aF1.0
aF1.5
aF2.0
aFinf
aF1.0
aF2.0
aa(lp62
F2.0
aF1.8333333333333333
aF2.0
aF2.0
aF1.8333333333333333
aF2.5
aF1.5
aF1.5
aF2.0
aF2.5
aF1.8333333333333333
aF2.0
aF2.0
aF2.5
aF2.0
aF2.0
aF2.0
aF1.0
aF2.0
aF2.0
aF2.0
aF1.5
aF2.0
aF1.0
aF2.5
aF2.5
aF2.0
aF1.8333333333333333
aF1.0
aF1.0
aF2.0
aF2.0
aF1.0
aF2.0
aF2.0
aF2.0
aF2.5
aF2.0
aF2.5
aF2.0
aF1.5
aF2.0
aF2.0
aF1.75
aF2.0
aF2.0
aF1.0
aF2.0
aF2.0
aF2.0
aF2.5
aF1.8333333333333333
aF1.0
aF2.0
aF2.0
aF2.0
aF2.5
aF1.0
aF2.0
aF2.0
aF1.0
aFinf
aF2.5
aa(lp63
F2.0
aF1.3333333333333333
aF2.0
aF2.5
aF1.5
aF2.0
aF1.3333333333333333
aF1.5
aF2.5
aF2.0
aF1.5
aF2.0
aF1.5
aF1.0
aF2.5
aF2.0
aF1.0
aF2.5
aF2.5
aF2.0
aF2.5
aF1.0
aF2.0
aF2.0
aF2.0
aF2.333333333333333
aF2.5
aF1.3333333333333333
aF2.0
aF2.0
aF2.0
aF1.8333333333333333
aF2.5
aF1.5
aF1.0
aF2.5
aF1.0
aF1.0
aF2.0
aF2.5
aF1.0
aF1.5
aF2.5
aF1.0
aF2.0
aF2.0
aF2.0
aF2.333333333333333
aF2.0
aF2.0
aF2.0
aF1.5
aF1.5
aF1.0
aF2.0
aF2.5
aF2.333333333333333
aF2.5
aF2.0
aF2.5
aF2.0
aF2.5
aFinf
aa.