(lp0
(lp1
VGold On The Ceiling
p2
aVTighten Up
p3
aVHeavy Soul
p4
aVRag And Bone
p5
aVConquest
p6
aVThe Hardest Button To Button
p7
aVCreepin Up The Backstairs
p8
aVTell Me A Lie
p9
aVHenrietta
p10
aVFluorescent Adolescent
p11
aVTake Me Out
p12
aVUlysses
p13
aVWell That Was Easy
p14
aVIn One Ear
p15
aa(lp16
VLampshades On Fire
p17
aVIn One Ear
p18
aVAin't No Rest for the Wicked
p19
aVClint Eastwood
p20
aVFeel Good Inc
p21
aVThis Fire
p22
aVUlysses
p23
aVIf You Were There, Beware
p24
aVPerhaps Vampires Is A Bit Strong But\u2026
p25
aVCreepin Up The Backstairs
p26
aVTighten Up
p27
aVTen Cent Pistol
p28
aVShort Skirt / Long Jacket
p29
aVRag And Bone
p30
aa(lp31
VLevel
p32
aVSteady, As She Goes
p33
aVDashboard
p34
aVLampshades On Fire
p35
aVIn One Ear
p36
aVAin't No Rest for the Wicked
p37
aVClint Eastwood
p38
aVFeel Good Inc
p39
aVIf I ever feel better
p40
aVLisztomania
p41
aVFloat On
p42
aa(lp43
VRun
p44
aVM79
p45
aVIf I ever feel better
p46
aV1901
p47
aVWell That Was Easy
p48
aVThe Fallen
p49
aVNo One Knows
p50
aV3's & 7's
p51
aVFake Tales Of San Francisco
p52
aVIf You Were There, Beware
p53
aVWhy'd You Only Call Me When You're High?
p54
aVWhistle For The Choir
p55
aVGirl Is On My Mind
p56
aVNext Girl
p57
aa(lp58
VOxford Comma
p59
aVTake Me Out
p60
aVDo I Wanna Know?
p61
aVWhy'd You Only Call Me When You're High?
p62
aVChelsea Dagger
p63
aVRag And Bone
p64
aVBlue Orchid
p65
aVHowlin' For You
p66
aVGold On The Ceiling
p67
aVFever
p68
aVUnbelievers
p69
aVFlathead
p70
aa(lp71
VOxford Comma
p72
aVWell That Was Easy
p73
aVNo One Knows
p74
aVRed Light Indicates Doors Are Secured
p75
aVGot Ma Nuts From A Hippie
p76
aV505
p77
aVSt. James Infirmary Blues
p78
aVGirl, You Have No Faith In Medicine
p79
aVCatch Hell Blues
p80
aVShort Skirt / Long Jacket
p81
aVAcid Jazz Singer
p82
aVRag And Bone
p83
aa(lp84
VThe Hardest Button To Button
p85
aVIcky Thump
p86
aVApple Blossom
p87
aVThe Denial Twist
p88
aVRag And Bone
p89
aVTighten Up
p90
aVCatch Hell Blues
p91
aVTen Cent Pistol
p92
aVTen Cent Pistol
p93
aVLonely Boy
p94
aVGold On The Ceiling
p95
aa(lp96
VFake Tales Of San Francisco
p97
aVI Bet You Look Good On The Dancefloor
p98
aVFluorescent Adolescent
p99
aVCreepin Up The Backstairs
p100
aVTell Me A Lie
p101
aVHenrietta
p102
aVFlathead
p103
aVChelsea Dagger
p104
aVBrianstorm
p105
aVRed Light Indicates Doors Are Secured
p106
aVPerhaps Vampires Is A Bit Strong But\u2026
p107
aVChelsea Dagger
p108
aa(lp109
VM79
p110
aVOxford Comma
p111
aVTake Me Out
p112
aVPerhaps Vampires Is A Bit Strong But\u2026
p113
aVFluorescent Adolescent
p114
aVGot Ma Nuts From A Hippie
p115
aVCreepin Up The Backstairs
p116
aVTell Me A Lie
p117
aVThe Denial Twist
p118
aVTighten Up
p119
aVGold On The Ceiling
p120
aVRag And Bone
p121
aa(lp122
VDo I Wanna Know?
p123
aVWhy'd You Only Call Me When You're High?
p124
aVHeavy Soul
p125
aVBlue Orchid
p126
aVI'm Not The One
p127
aVUlysses
p128
aVHorchata
p129
aV1901
p130
aVLisztomania
p131
aVM79
p132
aa.